(dp0
S'Ru'
p1
(lp2
I44
a(dp3
I87
(lp4
F86.95069
asI88
(lp5
F87.9416
asI89
(lp6
F88.93762
asI90
(lp7
F89.93034438
asI91
(lp8
F90.926741859
asI92
(lp9
F91.920234375
asI93
(lp10
F92.917104444
asI94
(lp11
F93.911342863
asI95
(lp12
F94.910405759
asI96
(lp13
F95.907590255
asI97
(lp14
F96.90754712
asI98
(lp15
F97.905286813
asI99
(lp16
F98.905934082
asI100
(lp17
F99.904214256
asI101
(lp18
F100.905576872
asI102
(lp19
F101.904344096
asI103
(lp20
F102.906318627
asI104
(lp21
F103.905427481
asI105
(lp22
F104.907747645
asI106
(lp23
F105.907329104
asI107
(lp24
F106.909972045
asI108
(lp25
F107.910188022
asI109
(lp26
F108.913325956
asI110
(lp27
F109.914040696
asI111
(lp28
F110.917569857
asI112
(lp29
F111.918809234
asI113
(lp30
F112.922843999
asI114
(lp31
F113.924613554
asI115
(lp32
F114.928819898
asI116
(lp33
F115.931219195
asI117
(lp34
F116.936103
asI118
(lp35
F117.93853
asI119
(lp36
F118.94357
asI120
(lp37
F119.94631
asI121
(lp38
F120.95164
asI122
(lp39
F121.95447
asI123
(lp40
F122.95989
asI124
(lp41
F123.96305
asasS'Re'
p42
(lp43
I75
a(dp44
I159
(lp45
F158.984179
asI160
(lp46
F159.981823
asI161
(lp47
F160.977572951
asI162
(lp48
F161.975844
asI163
(lp49
F162.97207986
asI164
(lp50
F163.97045287
asI165
(lp51
F164.96710266
asI166
(lp52
F165.965760821
asI167
(lp53
F166.962595
asI168
(lp54
F167.961572608
asI169
(lp55
F168.958766063
asI170
(lp56
F169.958220071
asI171
(lp57
F170.955716
asI172
(lp58
F171.955419665
asI173
(lp59
F172.953243
asI174
(lp60
F173.953115
asI175
(lp61
F174.951381
asI176
(lp62
F175.951623
asI177
(lp63
F176.950328
asI178
(lp64
F177.950989
asI179
(lp65
F178.94998913
asI180
(lp66
F179.950791568
asI181
(lp67
F180.950057673
asI182
(lp68
F181.951209869
asI183
(lp69
F182.950819638
asI184
(lp70
F183.952522809
asI185
(lp71
F184.952954486
asI186
(lp72
F185.954985595
asI187
(lp73
F186.955750071
asI188
(lp74
F187.95811151
asI189
(lp75
F188.95922602
asI190
(lp76
F189.96174426
asI191
(lp77
F190.963121551
asI192
(lp78
F191.966088
asI193
(lp79
F192.967541
asI194
(lp80
F193.97076
asI195
(lp81
F194.97254
asI196
(lp82
F195.9758
asI197
(lp83
F196.97799
asI198
(lp84
F197.9816
asasS'Rf'
p85
(lp86
I104
a(dp87
I256
(lp88
F256.101152218
asI257
(lp89
F257.10291812
asI258
(lp90
F258.103427679
asI259
(lp91
F259.105596
asI260
(lp92
F260.106441
asI261
(lp93
F261.108773401
asI262
(lp94
F262.109925
asI263
(lp95
F263.112495
asI264
(lp96
F264.113879
asI265
(lp97
F265.116684
asI266
(lp98
F266.118172
asI267
(lp99
F267.121789
asI268
(lp100
F268.123968
asI253
(lp101
F253.100438
asI254
(lp102
F254.100053
asI255
(lp103
F255.101268
asasS'Rg'
p104
(lp105
I111
a(dp106
I272
(lp107
F272.153273
asI273
(lp108
F273.153127
asI274
(lp109
F274.155253
asI275
(lp110
F275.155939
asI276
(lp111
F276.158334
asI277
(lp112
F277.159069
asI278
(lp113
F278.161493
asI279
(lp114
F279.162722
asI280
(lp115
F280.165138
asI281
(lp116
F281.16636
asI282
(lp117
F282.169119
asI283
(lp118
F283.170544
asasS'Ra'
p119
(lp120
I88
a(dp121
I201
(lp122
F201.012712
asI202
(lp123
F202.009759744
asI203
(lp124
F203.009304274
asI204
(lp125
F204.006491866
asI205
(lp126
F205.006268245
asI206
(lp127
F206.003828053
asI207
(lp128
F207.003799159
asI208
(lp129
F208.001841122
asI209
(lp130
F209.001990455
asI210
(lp131
F210.000494169
asI211
(lp132
F211.000893214
asI212
(lp133
F211.999786715
asI213
(lp134
F213.000384258
asI214
(lp135
F214.000099727
asI215
(lp136
F215.00272042
asI216
(lp137
F216.003533423
asI217
(lp138
F217.006320726
asI218
(lp139
F218.007140631
asI219
(lp140
F219.010085484
asI220
(lp141
F220.011025872
asI221
(lp142
F221.01391768
asI222
(lp143
F222.015374846
asI223
(lp144
F223.018502327
asI224
(lp145
F224.020211968
asI225
(lp146
F225.023611857
asI226
(lp147
F226.02541033
asI227
(lp148
F227.029178349
asI228
(lp149
F228.031070728
asI229
(lp150
F229.034942262
asI230
(lp151
F230.037054781
asI231
(lp152
F231.041027087
asI232
(lp153
F232.04347527
asI233
(lp154
F233.047582
asI234
(lp155
F234.050342
asI235
(lp156
F235.05497
asasS'Rb'
p157
(lp158
I37
a(dp159
I71
(lp160
F70.96532
asI72
(lp161
F71.95908
asI73
(lp162
F72.950529
asI74
(lp163
F73.944265894
asI75
(lp164
F74.938573201
asI76
(lp165
F75.935073032
asI77
(lp166
F76.9304016
asI78
(lp167
F77.928141868
asI79
(lp168
F78.923989864
asI80
(lp169
F79.922516444
asI81
(lp170
F80.918993936
asI82
(lp171
F81.918209024
asI83
(lp172
F82.915114183
asI84
(lp173
F83.914375229
asI85
(lp174
F84.9117897379
asI86
(lp175
F85.911167425
asI87
(lp176
F86.909180531
asI88
(lp177
F87.911315592
asI89
(lp178
F88.912278298
asI90
(lp179
F89.914798453
asI91
(lp180
F90.916537169
asI92
(lp181
F91.919728389
asI93
(lp182
F92.922039269
asI94
(lp183
F93.926394814
asI95
(lp184
F94.929260004
asI96
(lp185
F95.93413338
asI97
(lp186
F96.937177136
asI98
(lp187
F97.941686868
asI99
(lp188
F98.945028735
asI100
(lp189
F99.95003
asI101
(lp190
F100.954039
asI102
(lp191
F101.95952
asI103
(lp192
F102.96392
asasS'Rn'
p193
(lp194
I86
a(dp195
I193
(lp196
F193.009707979
asI194
(lp197
F194.006144389
asI195
(lp198
F195.005421673
asI196
(lp199
F196.002115998
asI197
(lp200
F197.00158462
asI198
(lp201
F197.998679156
asI199
(lp202
F198.998389856
asI200
(lp203
F199.995690431
asI201
(lp204
F200.99562801
asI202
(lp205
F201.993264277
asI203
(lp206
F202.993387741
asI204
(lp207
F203.991429922
asI205
(lp208
F204.99171884
asI206
(lp209
F205.990214219
asI207
(lp210
F206.990730254
asI208
(lp211
F207.989634687
asI209
(lp212
F208.99041451
asI210
(lp213
F209.989689107
asI211
(lp214
F210.99060111
asI212
(lp215
F211.990703919
asI213
(lp216
F212.993883069
asI214
(lp217
F213.995362956
asI215
(lp218
F214.99874589
asI216
(lp219
F216.000271859
asI217
(lp220
F217.003928018
asI218
(lp221
F218.005601586
asI219
(lp222
F219.009480361
asI220
(lp223
F220.01139413
asI221
(lp224
F221.015537076
asI222
(lp225
F222.017578246
asI223
(lp226
F223.021889286
asI224
(lp227
F224.024095805
asI225
(lp228
F225.028485574
asI226
(lp229
F226.030861382
asI227
(lp230
F227.035304396
asI228
(lp231
F228.037835418
asI229
(lp232
F229.042257277
asI230
(lp233
F230.04514
asI231
(lp234
F231.04987
asasS'Rh'
p235
(lp236
I45
a(dp237
I89
(lp238
F88.950584
asI90
(lp239
F89.94422
asI91
(lp240
F90.93688
asI92
(lp241
F91.932367694
asI93
(lp242
F92.925912781
asI94
(lp243
F93.921730453
asI95
(lp244
F94.915897895
asI96
(lp245
F95.914453051
asI97
(lp246
F96.911329216
asI98
(lp247
F97.910707839
asI99
(lp248
F98.908128239
asI100
(lp249
F99.908117264
asI101
(lp250
F100.906160613
asI102
(lp251
F101.906837373
asI103
(lp252
F102.905497993
asI104
(lp253
F103.90664922
asI105
(lp254
F104.905688549
asI106
(lp255
F105.907286801
asI107
(lp256
F106.906747811
asI108
(lp257
F107.908714473
asI109
(lp258
F108.908748821
asI110
(lp259
F109.911079429
asI111
(lp260
F110.91164231
asI112
(lp261
F111.914403222
asI113
(lp262
F112.915439342
asI114
(lp263
F113.918718294
asI115
(lp264
F114.920311589
asI116
(lp265
F115.924058528
asI117
(lp266
F116.926035391
asI118
(lp267
F117.930340208
asI119
(lp268
F118.932556954
asI120
(lp269
F119.93686
asI121
(lp270
F120.93942
asI122
(lp271
F121.94399
asI123
(lp272
F122.94685
asI124
(lp273
F123.95151
asI125
(lp274
F124.95469
asI126
(lp275
F125.95946
asasS'Be'
p276
(lp277
I4
a(dp278
I5
(lp279
F5.03987
asI6
(lp280
F6.019726411
asI7
(lp281
F7.016928717
asI8
(lp282
F8.005305102
asI9
(lp283
F9.012183065
asI10
(lp284
F10.013534695
asI11
(lp285
F11.021661081
asI12
(lp286
F12.026922082
asI13
(lp287
F13.036134506
asI14
(lp288
F14.04289292
asI15
(lp289
F15.05342
asI16
(lp290
F16.061672036
asasS'Ba'
p291
(lp292
I56
a(dp293
I128
(lp294
F127.908341967
asI129
(lp295
F128.908680798
asI130
(lp296
F129.906320669
asI131
(lp297
F130.906940977
asI132
(lp298
F131.905061128
asI133
(lp299
F132.906007351
asI134
(lp300
F133.904508182
asI135
(lp301
F134.905688375
asI136
(lp302
F135.904575727
asI137
(lp303
F136.905827141
asI138
(lp304
F137.905246995
asI139
(lp305
F138.908841099
asI140
(lp306
F139.91060573
asI141
(lp307
F140.914403333
asI142
(lp308
F141.916432382
asI143
(lp309
F142.920625293
asI144
(lp310
F143.922954866
asI145
(lp311
F144.9275184
asI146
(lp312
F145.930283712
asI147
(lp313
F146.9353039
asI148
(lp314
F147.938170578
asI149
(lp315
F148.94308
asI150
(lp316
F149.94605
asI151
(lp317
F150.95127
asI152
(lp318
F151.95481
asI153
(lp319
F152.96036
asI114
(lp320
F113.950660438
asI115
(lp321
F114.94737
asI116
(lp322
F115.94128
asI117
(lp323
F116.93814057
asI118
(lp324
F117.93306
asI119
(lp325
F118.930659686
asI120
(lp326
F119.926045
asI121
(lp327
F120.92405229
asI122
(lp328
F121.919904
asI123
(lp329
F122.918781063
asI124
(lp330
F123.915093629
asI125
(lp331
F124.914471843
asI126
(lp332
F125.911250204
asI127
(lp333
F126.911091275
asasS'Bh'
p334
(lp335
I107
a(dp336
I260
(lp337
F260.121659
asI261
(lp338
F261.121455
asI262
(lp339
F262.122967
asI263
(lp340
F263.122916
asI264
(lp341
F264.124593
asI265
(lp342
F265.124914
asI266
(lp343
F266.126794
asI267
(lp344
F267.127501
asI268
(lp345
F268.129692
asI269
(lp346
F269.130416
asI270
(lp347
F270.133363
asI271
(lp348
F271.135256
asI272
(lp349
F272.138264
asI273
(lp350
F273.14024
asI274
(lp351
F274.143548
asI275
(lp352
F275.14567
asasS'Bi'
p353
(lp354
I83
a(dp355
I184
(lp356
F184.001274756
asI185
(lp357
F184.9976
asI186
(lp358
F185.996643681
asI187
(lp359
F186.993147184
asI188
(lp360
F187.992286943
asI189
(lp361
F188.989194984
asI190
(lp362
F189.988621561
asI191
(lp363
F190.985786556
asI192
(lp364
F191.985469058
asI193
(lp365
F192.982959813
asI194
(lp366
F193.982785
asI195
(lp367
F194.980648781
asI196
(lp368
F195.980666509
asI197
(lp369
F196.978865099
asI198
(lp370
F197.979206
asI199
(lp371
F198.97767301
asI200
(lp372
F199.978131179
asI201
(lp373
F200.977010416
asI202
(lp374
F201.977733861
asI203
(lp375
F202.976892779
asI204
(lp376
F203.977836062
asI205
(lp377
F204.977386694
asI206
(lp378
F205.978499317
asI207
(lp379
F206.978471022
asI208
(lp380
F207.97974253
asI209
(lp381
F208.980399068
asI210
(lp382
F209.984120705
asI211
(lp383
F210.987269741
asI212
(lp384
F211.991286026
asI213
(lp385
F212.994385067
asI214
(lp386
F213.998711926
asI215
(lp387
F215.001769823
asI216
(lp388
F216.006305989
asI217
(lp389
F217.009372
asI218
(lp390
F218.014188
asI219
(lp391
F219.01748
asI220
(lp392
F220.02235
asI221
(lp393
F221.02587
asI222
(lp394
F222.03078
asI223
(lp395
F223.0345
asI224
(lp396
F224.03947
asasS'Bk'
p397
(lp398
I97
a(dp399
I234
(lp400
F234.057267
asI235
(lp401
F235.05658
asI236
(lp402
F236.05748
asI237
(lp403
F237.0571
asI238
(lp404
F238.058204
asI239
(lp405
F239.058241
asI240
(lp406
F240.059759
asI241
(lp407
F241.060155
asI242
(lp408
F242.061982
asI243
(lp409
F243.063007791
asI244
(lp410
F244.065180979
asI245
(lp411
F245.066361821
asI246
(lp412
F246.068673126
asI247
(lp413
F247.070307302
asI248
(lp414
F248.073088
asI249
(lp415
F249.074987676
asI250
(lp416
F250.078316698
asI251
(lp417
F251.080762009
asI252
(lp418
F252.084311
asI253
(lp419
F253.08688
asI254
(lp420
F254.0906
asasS'n'
p421
(lp422
I0
a(dp423
I1
(lp424
F1.00866491585
asasS'Br'
p425
(lp426
I35
a(dp427
I67
(lp428
F66.96465
asI68
(lp429
F67.958732
asI69
(lp430
F68.950497297
asI70
(lp431
F69.944792323
asI71
(lp432
F70.939342155
asI72
(lp433
F71.936588619
asI73
(lp434
F72.931671503
asI74
(lp435
F73.929910177
asI75
(lp436
F74.925810452
asI76
(lp437
F75.924541576
asI77
(lp438
F76.921379198
asI78
(lp439
F77.921145895
asI79
(lp440
F78.918337579
asI80
(lp441
F79.918529788
asI81
(lp442
F80.91628969
asI82
(lp443
F81.916803246
asI83
(lp444
F82.91517562
asI84
(lp445
F83.916496419
asI85
(lp446
F84.91564576
asI86
(lp447
F85.918805433
asI87
(lp448
F86.920674018
asI88
(lp449
F87.924083292
asI89
(lp450
F88.92670456
asI90
(lp451
F89.93129285
asI91
(lp452
F90.934398619
asI92
(lp453
F91.939631597
asI93
(lp454
F92.943134
asI94
(lp455
F93.9489
asI95
(lp456
F94.95301
asI96
(lp457
F95.95903
asI97
(lp458
F96.96344
asI98
(lp459
F97.96946
asasS'H'
p460
(lp461
I1
a(dp462
I1
(lp463
F1.00782503223
asI2
(lp464
F2.01410177812
asI3
(lp465
F3.01604927791
asI4
(lp466
F4.026431864
asI5
(lp467
F5.035311489
asI6
(lp468
F6.044955433
asI7
(lp469
F7.052749
asasS'P'
p470
(lp471
I15
a(dp472
I24
(lp473
F24.03577
asI25
(lp474
F25.02119
asI26
(lp475
F26.01178
asI27
(lp476
F26.999224406
asI28
(lp477
F27.992326585
asI29
(lp478
F28.981800794
asI30
(lp479
F29.978313753
asI31
(lp480
F30.9737619984
asI32
(lp481
F31.973907643
asI33
(lp482
F32.971725694
asI34
(lp483
F33.973645886
asI35
(lp484
F34.973314062
asI36
(lp485
F35.978259625
asI37
(lp486
F36.979606841
asI38
(lp487
F37.984251583
asI39
(lp488
F38.986227208
asI40
(lp489
F39.991331748
asI41
(lp490
F40.994654
asI42
(lp491
F42.001084
asI43
(lp492
F43.005024
asI44
(lp493
F44.01121
asI45
(lp494
F45.01645
asI46
(lp495
F46.02446
asI47
(lp496
F47.03139
asasS'Os'
p497
(lp498
I76
a(dp499
I161
(lp500
F160.989029
asI162
(lp501
F161.984431
asI163
(lp502
F162.98241
asI164
(lp503
F163.978021712
asI165
(lp504
F164.976602
asI166
(lp505
F165.972692476
asI167
(lp506
F166.971548768
asI168
(lp507
F167.967807751
asI169
(lp508
F168.967017574
asI170
(lp509
F169.963578454
asI171
(lp510
F170.963173969
asI172
(lp511
F171.960017317
asI173
(lp512
F172.959808465
asI174
(lp513
F173.957063507
asI175
(lp514
F174.956945313
asI176
(lp515
F175.954806
asI177
(lp516
F176.954965628
asI178
(lp517
F177.953253627
asI179
(lp518
F178.953816881
asI180
(lp519
F179.952375485
asI181
(lp520
F180.953247188
asI182
(lp521
F181.952110187
asI183
(lp522
F182.953124719
asI184
(lp523
F183.952488536
asI185
(lp524
F184.954041741
asI186
(lp525
F185.953835044
asI187
(lp526
F186.955747422
asI188
(lp527
F187.955835174
asI189
(lp528
F188.958144162
asI190
(lp529
F189.958443702
asI191
(lp530
F190.960926361
asI192
(lp531
F191.961476998
asI193
(lp532
F192.96414787
asI194
(lp533
F193.96517724
asI195
(lp534
F194.968318
asI196
(lp535
F195.969641463
asI197
(lp536
F196.97283
asI198
(lp537
F197.97441
asI199
(lp538
F198.97801
asI200
(lp539
F199.97984
asI201
(lp540
F200.98364
asI202
(lp541
F201.98595
asasS'Es'
p542
(lp543
I99
a(dp544
I256
(lp545
F256.093599
asI257
(lp546
F257.095979
asI258
(lp547
F258.09952
asI239
(lp548
F239.06823
asI240
(lp549
F240.06892
asI241
(lp550
F241.06856
asI242
(lp551
F242.069567
asI243
(lp552
F243.06951
asI244
(lp553
F244.070883
asI245
(lp554
F245.071249
asI246
(lp555
F246.072896
asI247
(lp556
F247.073622017
asI248
(lp557
F248.075471
asI249
(lp558
F249.076411
asI250
(lp559
F250.078612
asI251
(lp560
F251.079993586
asI252
(lp561
F252.082979865
asI253
(lp562
F253.084825715
asI254
(lp563
F254.088022199
asI255
(lp564
F255.090274958
asasS'Hg'
p565
(lp566
I80
a(dp567
I171
(lp568
F171.003529
asI172
(lp569
F171.998808967
asI173
(lp570
F172.997091
asI174
(lp571
F173.992864748
asI175
(lp572
F174.991440747
asI176
(lp573
F175.987360863
asI177
(lp574
F176.986277319
asI178
(lp575
F177.982483769
asI179
(lp576
F178.981831329
asI180
(lp577
F179.978260335
asI181
(lp578
F180.977819371
asI182
(lp579
F181.974689351
asI183
(lp580
F182.974444783
asI184
(lp581
F183.971713528
asI185
(lp582
F184.971899388
asI186
(lp583
F185.969362272
asI187
(lp584
F186.969814428
asI188
(lp585
F187.967566887
asI189
(lp586
F188.968194927
asI190
(lp587
F189.966322735
asI191
(lp588
F190.96715716
asI192
(lp589
F191.965634702
asI193
(lp590
F192.966652658
asI194
(lp591
F193.965449112
asI195
(lp592
F194.96672054
asI196
(lp593
F195.96583256
asI197
(lp594
F196.967212847
asI198
(lp595
F197.966768602
asI199
(lp596
F198.968280643
asI200
(lp597
F199.96832659
asI201
(lp598
F200.970302839
asI202
(lp599
F201.9706434
asI203
(lp600
F202.972872837
asI204
(lp601
F203.973493981
asI205
(lp602
F204.976073417
asI206
(lp603
F205.977514401
asI207
(lp604
F206.9823
asI208
(lp605
F207.985759
asI209
(lp606
F208.99072
asI210
(lp607
F209.99424
asI211
(lp608
F210.99933
asI212
(lp609
F212.00296
asI213
(lp610
F213.00823
asI214
(lp611
F214.012
asI215
(lp612
F215.0174
asI216
(lp613
F216.02132
asasS'Ge'
p614
(lp615
I32
a(dp616
I58
(lp617
F57.99172
asI59
(lp618
F58.98249
asI60
(lp619
F59.97036
asI61
(lp620
F60.96379
asI62
(lp621
F61.95502
asI63
(lp622
F62.949628
asI64
(lp623
F63.941689913
asI65
(lp624
F64.939368137
asI66
(lp625
F65.933862126
asI67
(lp626
F66.932733861
asI68
(lp627
F67.928095307
asI69
(lp628
F68.927964481
asI70
(lp629
F69.92424875
asI71
(lp630
F70.924952327
asI72
(lp631
F71.922075826
asI73
(lp632
F72.923458956
asI74
(lp633
F73.921177761
asI75
(lp634
F74.92285837
asI76
(lp635
F75.921402726
asI77
(lp636
F76.923549843
asI78
(lp637
F77.922852908
asI79
(lp638
F78.925360127
asI80
(lp639
F79.925350775
asI81
(lp640
F80.928832943
asI82
(lp641
F81.929774033
asI83
(lp642
F82.934539101
asI84
(lp643
F83.937575092
asI85
(lp644
F84.94296966
asI86
(lp645
F85.94658
asI87
(lp646
F86.95268
asI88
(lp647
F87.95691
asI89
(lp648
F88.96379
asI90
(lp649
F89.96863
asasS'Gd'
p650
(lp651
I64
a(dp652
I133
(lp653
F132.96133
asI134
(lp654
F133.95566
asI135
(lp655
F134.95245
asI136
(lp656
F135.9473
asI137
(lp657
F136.94502
asI138
(lp658
F137.94025
asI139
(lp659
F138.93813
asI140
(lp660
F139.933674
asI141
(lp661
F140.932126
asI142
(lp662
F141.928116
asI143
(lp663
F142.926750682
asI144
(lp664
F143.922963
asI145
(lp665
F144.921712821
asI146
(lp666
F145.918318817
asI147
(lp667
F146.919101384
asI148
(lp668
F147.918121511
asI149
(lp669
F148.919348117
asI150
(lp670
F149.918664422
asI151
(lp671
F150.92035595
asI152
(lp672
F151.919799494
asI153
(lp673
F152.921758027
asI154
(lp674
F153.92087406
asI155
(lp675
F154.922630473
asI156
(lp676
F155.922131241
asI157
(lp677
F156.923968569
asI158
(lp678
F157.924112348
asI159
(lp679
F158.926396969
asI160
(lp680
F159.927062411
asI161
(lp681
F160.929677476
asI162
(lp682
F161.930993017
asI163
(lp683
F162.934176855
asI164
(lp684
F163.93583
asI165
(lp685
F164.93936
asI166
(lp686
F165.94146
asI167
(lp687
F166.94545
asI168
(lp688
F167.94808
asI169
(lp689
F168.9526
asasS'Ga'
p690
(lp691
I31
a(dp692
I56
(lp693
F55.99536
asI57
(lp694
F56.9832
asI58
(lp695
F57.97478
asI59
(lp696
F58.96353
asI60
(lp697
F59.95729
asI61
(lp698
F60.949398984
asI62
(lp699
F61.944190251
asI63
(lp700
F62.939294196
asI64
(lp701
F63.93684044
asI65
(lp702
F64.932734588
asI66
(lp703
F65.931589401
asI67
(lp704
F66.928202547
asI68
(lp705
F67.927980485
asI69
(lp706
F68.925573541
asI70
(lp707
F69.926021927
asI71
(lp708
F70.924702577
asI72
(lp709
F71.926367474
asI73
(lp710
F72.925174682
asI74
(lp711
F73.926945727
asI75
(lp712
F74.926500246
asI76
(lp713
F75.928827626
asI77
(lp714
F76.9291543
asI78
(lp715
F77.931608845
asI79
(lp716
F78.932852301
asI80
(lp717
F79.936420775
asI81
(lp718
F80.938133843
asI82
(lp719
F81.943176533
asI83
(lp720
F82.947120301
asI84
(lp721
F83.95246
asI85
(lp722
F84.95699
asI86
(lp723
F85.96301
asI87
(lp724
F86.968245
asasS'Pr'
p725
(lp726
I59
a(dp727
I128
(lp728
F127.928791
asI129
(lp729
F128.925095
asI130
(lp730
F129.92359
asI131
(lp731
F130.92023496
asI132
(lp732
F131.919255
asI133
(lp733
F132.916330561
asI134
(lp734
F133.915696729
asI135
(lp735
F134.913111775
asI136
(lp736
F135.912677456
asI137
(lp737
F136.91067915
asI138
(lp738
F137.910754405
asI139
(lp739
F138.908940762
asI140
(lp740
F139.909080275
asI141
(lp741
F140.907657568
asI142
(lp742
F141.910049607
asI143
(lp743
F142.910822796
asI144
(lp744
F143.913310859
asI145
(lp745
F144.914518156
asI146
(lp746
F145.91767985
asI147
(lp747
F146.919007518
asI148
(lp748
F147.922130083
asI149
(lp749
F148.9237361
asI150
(lp750
F149.926676502
asI151
(lp751
F150.928309285
asI152
(lp752
F151.9315529
asI153
(lp753
F152.933903539
asI154
(lp754
F153.937525741
asI155
(lp755
F154.940509281
asI156
(lp756
F155.94464
asI157
(lp757
F156.94789
asI158
(lp758
F157.95241
asI159
(lp759
F158.95589
asI121
(lp760
F120.95532
asI122
(lp761
F121.95175
asI123
(lp762
F122.94596
asI124
(lp763
F123.94294
asI125
(lp764
F124.9377
asI126
(lp765
F125.93524
asI127
(lp766
F126.93071
asasS'Pt'
p767
(lp768
I78
a(dp769
I166
(lp770
F165.994855
asI167
(lp771
F166.992695
asI168
(lp772
F167.988128665
asI169
(lp773
F168.986567
asI170
(lp774
F169.982496345
asI171
(lp775
F170.981245248
asI172
(lp776
F171.977350921
asI173
(lp777
F172.976443058
asI174
(lp778
F173.972819528
asI175
(lp779
F174.972409721
asI176
(lp780
F175.968938362
asI177
(lp781
F176.968469537
asI178
(lp782
F177.965649523
asI179
(lp783
F178.965358953
asI180
(lp784
F179.963031955
asI181
(lp785
F180.963097588
asI182
(lp786
F181.961171823
asI183
(lp787
F182.961596804
asI184
(lp788
F183.959915113
asI185
(lp789
F184.960613659
asI186
(lp790
F185.959350812
asI187
(lp791
F186.960616976
asI188
(lp792
F187.959388889
asI189
(lp793
F188.960831282
asI190
(lp794
F189.959929707
asI191
(lp795
F190.961672912
asI192
(lp796
F191.961038746
asI193
(lp797
F192.96298238
asI194
(lp798
F193.96268085
asI195
(lp799
F194.964791719
asI196
(lp800
F195.964952091
asI197
(lp801
F196.967340687
asI198
(lp802
F197.96789492
asI199
(lp803
F198.970595224
asI200
(lp804
F199.971442807
asI201
(lp805
F200.974513112
asI202
(lp806
F201.975639
asI203
(lp807
F202.97893
asI204
(lp808
F203.98076
asI205
(lp809
F204.98608
asI206
(lp810
F205.98966
asasS'Pu'
p811
(lp812
I94
a(dp813
I228
(lp814
F228.038732491
asI229
(lp815
F229.040143614
asI230
(lp816
F230.039650283
asI231
(lp817
F231.041101511
asI232
(lp818
F232.041184582
asI233
(lp819
F233.042997716
asI234
(lp820
F234.043317387
asI235
(lp821
F235.045286206
asI236
(lp822
F236.046058109
asI237
(lp823
F237.04840983
asI238
(lp824
F238.049560111
asI239
(lp825
F239.052163591
asI240
(lp826
F240.05381375
asI241
(lp827
F241.056851661
asI242
(lp828
F242.058742809
asI243
(lp829
F243.062003595
asI244
(lp830
F244.06420526
asI245
(lp831
F245.067826058
asI246
(lp832
F246.070205458
asI247
(lp833
F247.07419
asasS'None'
p834
(lp835
I0
a(dp836
I0
(lp837
I0
asasS'Pb'
p838
(lp839
I82
a(dp840
I178
(lp841
F178.003831243
asI179
(lp842
F179.002201112
asI180
(lp843
F179.997928286
asI181
(lp844
F180.99665331
asI182
(lp845
F181.992672466
asI183
(lp846
F182.991872098
asI184
(lp847
F183.988135701
asI185
(lp848
F184.987610004
asI186
(lp849
F185.984238331
asI187
(lp850
F186.983910895
asI188
(lp851
F187.980874815
asI189
(lp852
F188.980807
asI190
(lp853
F189.978081999
asI191
(lp854
F190.978276
asI192
(lp855
F191.975775008
asI193
(lp856
F192.976173234
asI194
(lp857
F193.97401225
asI195
(lp858
F194.974542922
asI196
(lp859
F195.972774233
asI197
(lp860
F196.973431166
asI198
(lp861
F197.972034077
asI199
(lp862
F198.97291268
asI200
(lp863
F199.971818893
asI201
(lp864
F200.972882917
asI202
(lp865
F201.972152026
asI203
(lp866
F202.973391126
asI204
(lp867
F203.973043981
asI205
(lp868
F204.974482157
asI206
(lp869
F205.974465683
asI207
(lp870
F206.975897297
asI208
(lp871
F207.976652481
asI209
(lp872
F208.981090461
asI210
(lp873
F209.984188861
asI211
(lp874
F210.988737125
asI212
(lp875
F211.991897703
asI213
(lp876
F212.996562894
asI214
(lp877
F213.999805917
asI215
(lp878
F215.004741
asI216
(lp879
F216.00803
asI217
(lp880
F217.01314
asI218
(lp881
F218.01659
asI219
(lp882
F219.02177
asI220
(lp883
F220.02541
asasS'Pa'
p884
(lp885
I91
a(dp886
I212
(lp887
F212.023202993
asI213
(lp888
F213.021109239
asI214
(lp889
F214.020918483
asI215
(lp890
F215.019182929
asI216
(lp891
F216.019108913
asI217
(lp892
F217.018325363
asI218
(lp893
F218.020058579
asI219
(lp894
F219.019904029
asI220
(lp895
F220.021705
asI221
(lp896
F221.021874941
asI222
(lp897
F222.023784
asI223
(lp898
F223.023962614
asI224
(lp899
F224.025617614
asI225
(lp900
F225.026131009
asI226
(lp901
F226.027948082
asI227
(lp902
F227.028805351
asI228
(lp903
F228.031051673
asI229
(lp904
F229.032097236
asI230
(lp905
F230.034541047
asI231
(lp906
F231.035884243
asI232
(lp907
F232.038591737
asI233
(lp908
F233.040247222
asI234
(lp909
F234.043307161
asI235
(lp910
F235.045399
asI236
(lp911
F236.048668
asI237
(lp912
F237.051023
asI238
(lp913
F238.054637
asI239
(lp914
F239.05726
asI240
(lp915
F240.06098
asI241
(lp916
F241.06408
asasS'Pd'
p917
(lp918
I46
a(dp919
I128
(lp920
F127.95183
asI91
(lp921
F90.95032
asI92
(lp922
F91.94088
asI93
(lp923
F92.936511
asI94
(lp924
F93.929037603
asI95
(lp925
F94.924889838
asI96
(lp926
F95.918215084
asI97
(lp927
F96.916471988
asI98
(lp928
F97.912698337
asI99
(lp929
F98.911774806
asI100
(lp930
F99.908504805
asI101
(lp931
F100.908286412
asI102
(lp932
F101.905602187
asI103
(lp933
F102.906080949
asI104
(lp934
F103.90403054
asI105
(lp935
F104.905079626
asI106
(lp936
F105.903480426
asI107
(lp937
F106.905128195
asI108
(lp938
F107.90389164
asI109
(lp939
F108.905950406
asI110
(lp940
F109.905172199
asI111
(lp941
F110.907689679
asI112
(lp942
F111.907329698
asI113
(lp943
F112.910261042
asI114
(lp944
F113.910368554
asI115
(lp945
F114.913658506
asI116
(lp946
F115.914296979
asI117
(lp947
F116.917954721
asI118
(lp948
F117.9190667
asI119
(lp949
F118.923340223
asI120
(lp950
F119.924551089
asI121
(lp951
F120.928950345
asI122
(lp952
F121.930631696
asI123
(lp953
F122.93514
asI124
(lp954
F123.93714
asI125
(lp955
F124.94179
asI126
(lp956
F125.94416
asI127
(lp957
F126.94907
asasS'Xe'
p958
(lp959
I54
a(dp960
I128
(lp961
F127.903531018
asI129
(lp962
F128.904780861
asI130
(lp963
F129.903509349
asI131
(lp964
F130.905084057
asI132
(lp965
F131.904155086
asI133
(lp966
F132.905910751
asI134
(lp967
F133.905394664
asI135
(lp968
F134.90722778
asI136
(lp969
F135.907214484
asI137
(lp970
F136.911557781
asI138
(lp971
F137.914146273
asI139
(lp972
F138.918792203
asI140
(lp973
F139.921645817
asI141
(lp974
F140.926787184
asI142
(lp975
F141.929973098
asI143
(lp976
F142.935369554
asI144
(lp977
F143.938945079
asI145
(lp978
F144.944719634
asI146
(lp979
F145.948518249
asI147
(lp980
F146.95426
asI148
(lp981
F147.95813
asI109
(lp982
F108.950434864
asI110
(lp983
F109.944263102
asI111
(lp984
F110.941607206
asI112
(lp985
F111.935558982
asI113
(lp986
F112.93322165
asI114
(lp987
F113.927980331
asI115
(lp988
F114.926293945
asI116
(lp989
F115.921581112
asI117
(lp990
F116.920358761
asI118
(lp991
F117.91617868
asI119
(lp992
F118.915410714
asI120
(lp993
F119.91178427
asI121
(lp994
F120.911453015
asI122
(lp995
F121.908367658
asI123
(lp996
F122.908481757
asI124
(lp997
F123.905891984
asI125
(lp998
F124.906394445
asI126
(lp999
F125.904298292
asI127
(lp1000
F126.905182914
asasS'Po'
p1001
(lp1002
I84
a(dp1003
I186
(lp1004
F186.004393241
asI187
(lp1005
F187.003041054
asI188
(lp1006
F187.999415569
asI189
(lp1007
F188.998473429
asI190
(lp1008
F189.995100569
asI191
(lp1009
F190.994558462
asI192
(lp1010
F191.991335925
asI193
(lp1011
F192.991025678
asI194
(lp1012
F193.988186101
asI195
(lp1013
F194.988125532
asI196
(lp1014
F195.985525902
asI197
(lp1015
F196.985659522
asI198
(lp1016
F197.983389132
asI199
(lp1017
F198.983667115
asI200
(lp1018
F199.98179879
asI201
(lp1019
F200.982259806
asI202
(lp1020
F201.980757657
asI203
(lp1021
F202.981416133
asI204
(lp1022
F203.980310339
asI205
(lp1023
F204.981203091
asI206
(lp1024
F205.980473991
asI207
(lp1025
F206.981593762
asI208
(lp1026
F207.981246092
asI209
(lp1027
F208.982430836
asI210
(lp1028
F209.982874076
asI211
(lp1029
F210.986653562
asI212
(lp1030
F211.988868376
asI213
(lp1031
F212.992857623
asI214
(lp1032
F213.995201683
asI215
(lp1033
F214.999420146
asI216
(lp1034
F216.001915186
asI217
(lp1035
F217.006318159
asI218
(lp1036
F218.008973546
asI219
(lp1037
F219.013614
asI220
(lp1038
F220.016386
asI221
(lp1039
F221.021228
asI222
(lp1040
F222.02414
asI223
(lp1041
F223.02907
asI224
(lp1042
F224.03211
asI225
(lp1043
F225.03707
asI226
(lp1044
F226.04031
asI227
(lp1045
F227.04539
asasS'Pm'
p1046
(lp1047
I61
a(dp1048
I128
(lp1049
F127.9487
asI129
(lp1050
F128.94323
asI130
(lp1051
F129.94053
asI131
(lp1052
F130.93567
asI132
(lp1053
F131.93384
asI133
(lp1054
F132.929782
asI134
(lp1055
F133.928353
asI135
(lp1056
F134.924823
asI136
(lp1057
F135.923584586
asI137
(lp1058
F136.920479523
asI138
(lp1059
F137.919548077
asI139
(lp1060
F138.91679967
asI140
(lp1061
F139.916039639
asI141
(lp1062
F140.913555084
asI142
(lp1063
F141.912890411
asI143
(lp1064
F142.910938262
asI144
(lp1065
F143.912596396
asI145
(lp1066
F144.912755935
asI146
(lp1067
F145.914702396
asI147
(lp1068
F146.915144988
asI148
(lp1069
F147.917481945
asI149
(lp1070
F148.918342277
asI150
(lp1071
F149.920990941
asI151
(lp1072
F150.921217539
asI152
(lp1073
F151.923506181
asI153
(lp1074
F152.924156686
asI154
(lp1075
F153.926471531
asI155
(lp1076
F154.928137048
asI156
(lp1077
F155.931117516
asI157
(lp1078
F156.933121393
asI158
(lp1079
F157.936565144
asI159
(lp1080
F158.939286502
asI160
(lp1081
F159.9431
asI161
(lp1082
F160.94607
asI162
(lp1083
F161.95022
asI163
(lp1084
F162.95357
asI126
(lp1085
F125.95792
asI127
(lp1086
F126.95192
asasS'Hs'
p1087
(lp1088
I108
a(dp1089
I263
(lp1090
F263.128522
asI264
(lp1091
F264.128356917
asI265
(lp1092
F265.129792986
asI266
(lp1093
F266.1300464
asI267
(lp1094
F267.131673
asI268
(lp1095
F268.131865
asI269
(lp1096
F269.133753
asI270
(lp1097
F270.13429
asI271
(lp1098
F271.13717
asI272
(lp1099
F272.138495
asI273
(lp1100
F273.141679
asI274
(lp1101
F274.143304
asI275
(lp1102
F275.146668
asI276
(lp1103
F276.148455
asI277
(lp1104
F277.151899
asasS'Ho'
p1105
(lp1106
I67
a(dp1107
I140
(lp1108
F139.968589
asI141
(lp1109
F140.963108
asI142
(lp1110
F141.96001
asI143
(lp1111
F142.95486
asI144
(lp1112
F143.952109715
asI145
(lp1113
F144.947267395
asI146
(lp1114
F145.944993506
asI147
(lp1115
F146.940142296
asI148
(lp1116
F147.937743928
asI149
(lp1117
F148.933802646
asI150
(lp1118
F149.933498408
asI151
(lp1119
F150.931698345
asI152
(lp1120
F151.931723623
asI153
(lp1121
F152.930206429
asI154
(lp1122
F153.930606834
asI155
(lp1123
F154.929104049
asI156
(lp1124
F155.929706112
asI157
(lp1125
F156.928254427
asI158
(lp1126
F157.928945969
asI159
(lp1127
F158.927719703
asI160
(lp1128
F159.928736606
asI161
(lp1129
F160.927861547
asI162
(lp1130
F161.929102274
asI163
(lp1131
F162.928741027
asI164
(lp1132
F163.930240273
asI165
(lp1133
F164.930328835
asI166
(lp1134
F165.932290927
asI167
(lp1135
F166.93313855
asI168
(lp1136
F167.935522173
asI169
(lp1137
F168.936878189
asI170
(lp1138
F169.939624846
asI171
(lp1139
F170.941471022
asI172
(lp1140
F171.94473
asI173
(lp1141
F172.94702
asI174
(lp1142
F173.95095
asI175
(lp1143
F174.95362
asasS'Hf'
p1144
(lp1145
I72
a(dp1146
I153
(lp1147
F152.97069
asI154
(lp1148
F153.96486
asI155
(lp1149
F154.96311
asI156
(lp1150
F155.959347805
asI157
(lp1151
F156.958236
asI158
(lp1152
F157.954801092
asI159
(lp1153
F158.953995669
asI160
(lp1154
F159.950690749
asI161
(lp1155
F160.95027837
asI162
(lp1156
F161.947214837
asI163
(lp1157
F162.947112946
asI164
(lp1158
F163.944370845
asI165
(lp1159
F164.944567
asI166
(lp1160
F165.94218
asI167
(lp1161
F166.9426
asI168
(lp1162
F167.940568
asI169
(lp1163
F168.941259
asI170
(lp1164
F169.939609
asI171
(lp1165
F170.940492
asI172
(lp1166
F171.939449716
asI173
(lp1167
F172.940513
asI174
(lp1168
F173.940046141
asI175
(lp1169
F174.941509187
asI176
(lp1170
F175.941407628
asI177
(lp1171
F176.943227717
asI178
(lp1172
F177.943705833
asI179
(lp1173
F178.945823212
asI180
(lp1174
F179.946557042
asI181
(lp1175
F180.949108338
asI182
(lp1176
F181.950561185
asI183
(lp1177
F182.953530444
asI184
(lp1178
F183.955446243
asI185
(lp1179
F184.958862
asI186
(lp1180
F185.960897
asI187
(lp1181
F186.96477
asI188
(lp1182
F187.96685
asI189
(lp1183
F188.97084
asasS'K'
p1184
(lp1185
I19
a(dp1186
I32
(lp1187
F32.02265
asI33
(lp1188
F33.00756
asI34
(lp1189
F33.99869
asI35
(lp1190
F34.988005407
asI36
(lp1191
F35.98130201
asI37
(lp1192
F36.973375889
asI38
(lp1193
F37.969081117
asI39
(lp1194
F38.9637064864
asI40
(lp1195
F39.963998166
asI41
(lp1196
F40.9618252579
asI42
(lp1197
F41.962402306
asI43
(lp1198
F42.960734702
asI44
(lp1199
F43.961586985
asI45
(lp1200
F44.960691493
asI46
(lp1201
F45.961981586
asI47
(lp1202
F46.961661614
asI48
(lp1203
F47.965341186
asI49
(lp1204
F48.968210755
asI50
(lp1205
F49.972380017
asI51
(lp1206
F50.975828036
asI52
(lp1207
F51.98224
asI53
(lp1208
F52.98746
asI54
(lp1209
F53.99463
asI55
(lp1210
F55.00076
asI56
(lp1211
F56.00851
asasS'He'
p1212
(lp1213
I2
a(dp1214
I3
(lp1215
F3.01602932008
asI4
(lp1216
F4.00260325413
asI5
(lp1217
F5.012057224
asI6
(lp1218
F6.018885891
asI7
(lp1219
F7.027990654
asI8
(lp1220
F8.03393439
asI9
(lp1221
F9.043946494
asI10
(lp1222
F10.052788655
asasS'Md'
p1223
(lp1224
I101
a(dp1225
I256
(lp1226
F256.093889
asI257
(lp1227
F257.095542387
asI258
(lp1228
F258.098431496
asI259
(lp1229
F259.100511
asI260
(lp1230
F260.103653
asI261
(lp1231
F261.105828
asI262
(lp1232
F262.109101
asI245
(lp1233
F245.080808
asI246
(lp1234
F246.081713
asI247
(lp1235
F247.081522
asI248
(lp1236
F248.082823
asI249
(lp1237
F249.082914
asI250
(lp1238
F250.084415
asI251
(lp1239
F251.084774376
asI252
(lp1240
F252.086432
asI253
(lp1241
F253.087144
asI254
(lp1242
F254.089592
asI255
(lp1243
F255.091084149
asasS'Mg'
p1244
(lp1245
I12
a(dp1246
I19
(lp1247
F19.034169186
asI20
(lp1248
F20.018850004
asI21
(lp1249
F21.01171614
asI22
(lp1250
F21.999570648
asI23
(lp1251
F22.994124208
asI24
(lp1252
F23.985041697
asI25
(lp1253
F24.985836976
asI26
(lp1254
F25.982592968
asI27
(lp1255
F26.984340624
asI28
(lp1256
F27.983876728
asI29
(lp1257
F28.988617393
asI30
(lp1258
F29.990462926
asI31
(lp1259
F30.996648032
asI32
(lp1260
F31.999110239
asI33
(lp1261
F33.005327145
asI34
(lp1262
F34.008935481
asI35
(lp1263
F35.01679
asI36
(lp1264
F36.021879
asI37
(lp1265
F37.03037
asI38
(lp1266
F38.03658
asI39
(lp1267
F39.045384
asI40
(lp1268
F40.05218
asasS'Mo'
p1269
(lp1270
I42
a(dp1271
I83
(lp1272
F82.94988
asI84
(lp1273
F83.94149
asI85
(lp1274
F84.938260737
asI86
(lp1275
F85.931174817
asI87
(lp1276
F86.928196201
asI88
(lp1277
F87.921967781
asI89
(lp1278
F88.919468151
asI90
(lp1279
F89.913930861
asI91
(lp1280
F90.911745312
asI92
(lp1281
F91.906807959
asI93
(lp1282
F92.906809577
asI94
(lp1283
F93.905084903
asI95
(lp1284
F94.905838766
asI96
(lp1285
F95.904676115
asI97
(lp1286
F96.906018118
asI98
(lp1287
F97.90540482
asI99
(lp1288
F98.907708509
asI100
(lp1289
F99.907471782
asI101
(lp1290
F100.910341447
asI102
(lp1291
F101.910283414
asI103
(lp1292
F102.913078578
asI104
(lp1293
F103.913734373
asI105
(lp1294
F104.916968617
asI106
(lp1295
F105.918259464
asI107
(lp1296
F106.922105877
asI108
(lp1297
F107.92403349
asI109
(lp1298
F108.92842416
asI110
(lp1299
F109.930703673
asI111
(lp1300
F110.935654257
asI112
(lp1301
F111.93831
asI113
(lp1302
F112.94335
asI114
(lp1303
F113.94653
asI115
(lp1304
F114.95196
asI116
(lp1305
F115.955448
asI117
(lp1306
F116.96117
asasS'Mn'
p1307
(lp1308
I25
a(dp1309
I44
(lp1310
F44.00715
asI45
(lp1311
F44.99449
asI46
(lp1312
F45.98609
asI47
(lp1313
F46.975775
asI48
(lp1314
F47.96852
asI49
(lp1315
F48.959595297
asI50
(lp1316
F49.954237781
asI51
(lp1317
F50.948208475
asI52
(lp1318
F51.945563949
asI53
(lp1319
F52.941288891
asI54
(lp1320
F53.940357615
asI55
(lp1321
F54.93804391
asI56
(lp1322
F55.938903691
asI57
(lp1323
F56.938286096
asI58
(lp1324
F57.940066645
asI59
(lp1325
F58.940391113
asI60
(lp1326
F59.943136576
asI61
(lp1327
F60.944452544
asI62
(lp1328
F61.947954
asI63
(lp1329
F62.949664675
asI64
(lp1330
F63.95384937
asI65
(lp1331
F64.95601975
asI66
(lp1332
F65.960546834
asI67
(lp1333
F66.96424
asI68
(lp1334
F67.96962
asI69
(lp1335
F68.97366
asI70
(lp1336
F69.97937
asI71
(lp1337
F70.98368
asasS'O'
p1338
(lp1339
I8
a(dp1340
I12
(lp1341
F12.034261836
asI13
(lp1342
F13.024815446
asI14
(lp1343
F14.008596359
asI15
(lp1344
F15.003065618
asI16
(lp1345
F15.9949146196
asI17
(lp1346
F16.9991317565
asI18
(lp1347
F17.9991596129
asI19
(lp1348
F19.00357797
asI20
(lp1349
F20.004075354
asI21
(lp1350
F21.008654813
asI22
(lp1351
F22.009966057
asI23
(lp1352
F23.015695922
asI24
(lp1353
F24.019861
asI25
(lp1354
F25.029358986
asI26
(lp1355
F26.03728745
asI27
(lp1356
F27.04772
asI28
(lp1357
F28.05591
asasS'Mt'
p1358
(lp1359
I109
a(dp1360
I265
(lp1361
F265.135996
asI266
(lp1362
F266.137374
asI267
(lp1363
F267.137189
asI268
(lp1364
F268.138649
asI269
(lp1365
F269.138822
asI270
(lp1366
F270.140327
asI271
(lp1367
F271.140744
asI272
(lp1368
F272.143406
asI273
(lp1369
F273.144399
asI274
(lp1370
F274.147245
asI275
(lp1371
F275.14882
asI276
(lp1372
F276.151594
asI277
(lp1373
F277.153268
asI278
(lp1374
F278.156307
asI279
(lp1375
F279.158075
asasS'S'
p1376
(lp1377
I16
a(dp1378
I26
(lp1379
F26.02907
asI27
(lp1380
F27.01828
asI28
(lp1381
F28.004372766
asI29
(lp1382
F28.996611456
asI30
(lp1383
F29.984907033
asI31
(lp1384
F30.979557007
asI32
(lp1385
F31.9720711744
asI33
(lp1386
F32.9714589098
asI34
(lp1387
F33.967867004
asI35
(lp1388
F34.96903231
asI36
(lp1389
F35.967080706
asI37
(lp1390
F36.971125514
asI38
(lp1391
F37.971163328
asI39
(lp1392
F38.975134197
asI40
(lp1393
F39.975482562
asI41
(lp1394
F40.979593451
asI42
(lp1395
F41.9810651
asI43
(lp1396
F42.986907635
asI44
(lp1397
F43.990118848
asI45
(lp1398
F44.995717
asI46
(lp1399
F46.00004
asI47
(lp1400
F47.00795
asI48
(lp1401
F48.0137
asI49
(lp1402
F49.022762
asasS'W'
p1403
(lp1404
I74
a(dp1405
I157
(lp1406
F156.97884
asI158
(lp1407
F157.974562
asI159
(lp1408
F158.972638
asI160
(lp1409
F159.968462584
asI161
(lp1410
F160.967197
asI162
(lp1411
F161.963499142
asI163
(lp1412
F162.962524342
asI164
(lp1413
F163.958960683
asI165
(lp1414
F164.958280788
asI166
(lp1415
F165.95503121
asI167
(lp1416
F166.95480456
asI168
(lp1417
F167.951805537
asI169
(lp1418
F168.951778845
asI170
(lp1419
F169.949231588
asI171
(lp1420
F170.949451
asI172
(lp1421
F171.947292
asI173
(lp1422
F172.947689
asI174
(lp1423
F173.946079
asI175
(lp1424
F174.946717
asI176
(lp1425
F175.945634
asI177
(lp1426
F176.946643
asI178
(lp1427
F177.945883303
asI179
(lp1428
F178.947077043
asI180
(lp1429
F179.946710805
asI181
(lp1430
F180.948197783
asI182
(lp1431
F181.948203945
asI183
(lp1432
F182.950222748
asI184
(lp1433
F183.950930916
asI185
(lp1434
F184.953418974
asI186
(lp1435
F185.954362771
asI187
(lp1436
F186.957158841
asI188
(lp1437
F187.958486177
asI189
(lp1438
F188.961763
asI190
(lp1439
F189.963090589
asI191
(lp1440
F190.966531
asI192
(lp1441
F191.96817
asI193
(lp1442
F192.97178
asI194
(lp1443
F193.97367
asasS'Zn'
p1444
(lp1445
I30
a(dp1446
I54
(lp1447
F53.992039
asI55
(lp1448
F54.98398
asI56
(lp1449
F55.97254
asI57
(lp1450
F56.96506
asI58
(lp1451
F57.954591062
asI59
(lp1452
F58.949312657
asI60
(lp1453
F59.941842103
asI61
(lp1454
F60.939507188
asI62
(lp1455
F61.934333971
asI63
(lp1456
F62.933211474
asI64
(lp1457
F63.929142013
asI65
(lp1458
F64.92924077
asI66
(lp1459
F65.926033809
asI67
(lp1460
F66.927127746
asI68
(lp1461
F67.924844554
asI69
(lp1462
F68.926550682
asI70
(lp1463
F69.925319208
asI71
(lp1464
F70.927719582
asI72
(lp1465
F71.926842807
asI73
(lp1466
F72.929582582
asI74
(lp1467
F73.929407262
asI75
(lp1468
F74.932840246
asI76
(lp1469
F75.933114957
asI77
(lp1470
F76.936887199
asI78
(lp1471
F77.938289206
asI79
(lp1472
F78.942638069
asI80
(lp1473
F79.944552931
asI81
(lp1474
F80.950402619
asI82
(lp1475
F81.95426
asI83
(lp1476
F82.96056
asI84
(lp1477
F83.965206
asI85
(lp1478
F84.97226
asasS'Ei'
p1479
(lp1480
I118
a(dp1481
I293
(lp1482
F293.213562
asI294
(lp1483
F294.213921
asI295
(lp1484
F295.21624
asasS'Eh'
p1485
(lp1486
I117
a(dp1487
I291
(lp1488
F291.205535
asI292
(lp1489
F292.207463
asI293
(lp1490
F293.208236
asI294
(lp1491
F294.210462
asasS'C'
p1492
(lp1493
I6
a(dp1494
I8
(lp1495
F8.037643042
asI9
(lp1496
F9.031037204
asI10
(lp1497
F10.016853307
asI11
(lp1498
F11.011433563
asI12
(lp1499
F12.0
asI13
(lp1500
F13.0033548351
asI14
(lp1501
F14.0032419884
asI15
(lp1502
F15.010599256
asI16
(lp1503
F16.014701252
asI17
(lp1504
F17.02257747
asI18
(lp1505
F18.026750708
asI19
(lp1506
F19.034796372
asI20
(lp1507
F20.040319754
asI21
(lp1508
F21.049
asI22
(lp1509
F22.057531496
asI23
(lp1510
F23.06889
asasS'Ed'
p1511
(lp1512
I113
a(dp1513
I278
(lp1514
F278.170578
asI279
(lp1515
F279.17095
asI280
(lp1516
F280.17293
asI281
(lp1517
F281.17348
asI282
(lp1518
F282.175672
asI283
(lp1519
F283.176571
asI284
(lp1520
F284.178727
asI285
(lp1521
F285.179727
asI286
(lp1522
F286.182208
asI287
(lp1523
F287.183389
asasS'Ef'
p1524
(lp1525
I115
a(dp1526
I288
(lp1527
F288.19274
asI289
(lp1528
F289.193627
asI290
(lp1529
F290.195975
asI291
(lp1530
F291.197071
asI287
(lp1531
F287.190704
asasS'Eu'
p1532
(lp1533
I63
a(dp1534
I130
(lp1535
F129.963689
asI131
(lp1536
F130.957842
asI132
(lp1537
F131.95467
asI133
(lp1538
F132.94929
asI134
(lp1539
F133.9464
asI135
(lp1540
F134.94187
asI136
(lp1541
F135.93962
asI137
(lp1542
F136.93546
asI138
(lp1543
F137.933709
asI139
(lp1544
F138.92979231
asI140
(lp1545
F139.928087637
asI141
(lp1546
F140.924931754
asI142
(lp1547
F141.92344169
asI143
(lp1548
F142.920298681
asI144
(lp1549
F143.918819553
asI145
(lp1550
F144.916272629
asI146
(lp1551
F145.917211039
asI147
(lp1552
F146.916752659
asI148
(lp1553
F147.918089243
asI149
(lp1554
F148.917937763
asI150
(lp1555
F149.919707671
asI151
(lp1556
F150.919857803
asI152
(lp1557
F151.921752184
asI153
(lp1558
F152.921238003
asI154
(lp1559
F153.922986962
asI155
(lp1560
F154.922901107
asI156
(lp1561
F155.924760494
asI157
(lp1562
F156.925433446
asI158
(lp1563
F157.927798606
asI159
(lp1564
F158.929100067
asI160
(lp1565
F159.931850939
asI161
(lp1566
F160.933664091
asI162
(lp1567
F161.936988761
asI163
(lp1568
F162.939195675
asI164
(lp1569
F163.942744
asI165
(lp1570
F164.945587
asI166
(lp1571
F165.94962
asI167
(lp1572
F166.95289
asasS'Zr'
p1573
(lp1574
I40
a(dp1575
I78
(lp1576
F77.95566
asI79
(lp1577
F78.94948
asI80
(lp1578
F79.9404
asI81
(lp1579
F80.937308892
asI82
(lp1580
F81.931354
asI83
(lp1581
F82.92924215
asI84
(lp1582
F83.923326899
asI85
(lp1583
F84.921444448
asI86
(lp1584
F85.916297204
asI87
(lp1585
F86.914817988
asI88
(lp1586
F87.91022129
asI89
(lp1587
F88.908881441
asI90
(lp1588
F89.904697659
asI91
(lp1589
F90.905639587
asI92
(lp1590
F91.905034675
asI93
(lp1591
F92.906469947
asI94
(lp1592
F93.906310828
asI95
(lp1593
F94.90803853
asI96
(lp1594
F95.908271433
asI97
(lp1595
F96.910951206
asI98
(lp1596
F97.912728892
asI99
(lp1597
F98.916666746
asI100
(lp1598
F99.918000576
asI101
(lp1599
F100.921447964
asI102
(lp1600
F101.92314093
asI103
(lp1601
F102.927190678
asI104
(lp1602
F103.929435691
asI105
(lp1603
F104.934008204
asI106
(lp1604
F105.93676
asI107
(lp1605
F106.94174
asI108
(lp1606
F107.94487
asI109
(lp1607
F108.95041
asI110
(lp1608
F109.95396
asI111
(lp1609
F110.959678
asI112
(lp1610
F111.963703
asasS'Er'
p1611
(lp1612
I68
a(dp1613
I142
(lp1614
F141.9701
asI143
(lp1615
F142.96662
asI144
(lp1616
F143.9607
asI145
(lp1617
F144.95805
asI146
(lp1618
F145.95241836
asI147
(lp1619
F146.949964459
asI148
(lp1620
F147.944735029
asI149
(lp1621
F148.942306
asI150
(lp1622
F149.937915567
asI151
(lp1623
F150.937448567
asI152
(lp1624
F151.935057085
asI153
(lp1625
F152.93508044
asI154
(lp1626
F153.932790842
asI155
(lp1627
F154.933215911
asI156
(lp1628
F155.931067313
asI157
(lp1629
F156.931948658
asI158
(lp1630
F157.929893474
asI159
(lp1631
F158.93069181
asI160
(lp1632
F159.92907713
asI161
(lp1633
F160.930004599
asI162
(lp1634
F161.928788364
asI163
(lp1635
F162.930040797
asI164
(lp1636
F163.929208791
asI165
(lp1637
F164.930734496
asI166
(lp1638
F165.93029953
asI167
(lp1639
F166.932054617
asI168
(lp1640
F167.932376688
asI169
(lp1641
F168.93459685
asI170
(lp1642
F169.93547023
asI171
(lp1643
F170.938035681
asI172
(lp1644
F171.939361858
asI173
(lp1645
F172.9424
asI174
(lp1646
F173.94423
asI175
(lp1647
F174.94777
asI176
(lp1648
F175.94994
asI177
(lp1649
F176.95399
asasS'Ni'
p1650
(lp1651
I28
a(dp1652
I48
(lp1653
F48.017688
asI49
(lp1654
F49.0077
asI50
(lp1655
F49.99474
asI51
(lp1656
F50.98611
asI52
(lp1657
F51.9748
asI53
(lp1658
F52.96819
asI54
(lp1659
F53.957892463
asI55
(lp1660
F54.951330632
asI56
(lp1661
F55.942128549
asI57
(lp1662
F56.939792184
asI58
(lp1663
F57.935342414
asI59
(lp1664
F58.934346202
asI60
(lp1665
F59.930785885
asI61
(lp1666
F60.93105557
asI62
(lp1667
F61.928345365
asI63
(lp1668
F62.929669626
asI64
(lp1669
F63.927966816
asI65
(lp1670
F64.930085173
asI66
(lp1671
F65.929139334
asI67
(lp1672
F66.931569414
asI68
(lp1673
F67.931868789
asI69
(lp1674
F68.935610269
asI70
(lp1675
F69.936431302
asI71
(lp1676
F70.940518964
asI72
(lp1677
F71.941785926
asI73
(lp1678
F72.946206683
asI74
(lp1679
F73.94798
asI75
(lp1680
F74.9525
asI76
(lp1681
F75.95533
asI77
(lp1682
F76.96055
asI78
(lp1683
F77.96336
asI79
(lp1684
F78.970252
asasS'No'
p1685
(lp1686
I102
a(dp1687
I256
(lp1688
F256.09428287
asI257
(lp1689
F257.09688783
asI258
(lp1690
F258.098207
asI259
(lp1691
F259.101032
asI260
(lp1692
F260.102644
asI261
(lp1693
F261.105697
asI262
(lp1694
F262.107464
asI263
(lp1695
F263.110715
asI264
(lp1696
F264.112734
asI248
(lp1697
F248.08655
asI249
(lp1698
F249.087797
asI250
(lp1699
F250.087562
asI251
(lp1700
F251.088944
asI252
(lp1701
F252.088966908
asI253
(lp1702
F253.090564103
asI254
(lp1703
F254.090955661
asI255
(lp1704
F255.093191404
asasS'Na'
p1705
(lp1706
I11
a(dp1707
I32
(lp1708
F32.020193
asI33
(lp1709
F33.02573
asI34
(lp1710
F34.03359
asI35
(lp1711
F35.040623
asI36
(lp1712
F36.049288
asI37
(lp1713
F37.057051
asI18
(lp1714
F18.026878252
asI19
(lp1715
F19.013880272
asI20
(lp1716
F20.007354426
asI21
(lp1717
F20.997654695
asI22
(lp1718
F21.994437411
asI23
(lp1719
F22.989769282
asI24
(lp1720
F23.99096295
asI25
(lp1721
F24.989953969
asI26
(lp1722
F25.992634649
asI27
(lp1723
F26.994076531
asI28
(lp1724
F27.998939
asI29
(lp1725
F29.002877073
asI30
(lp1726
F30.009097932
asI31
(lp1727
F31.013162656
asasS'Nb'
p1728
(lp1729
I41
a(dp1730
I81
(lp1731
F80.9496
asI82
(lp1732
F81.94396
asI83
(lp1733
F82.937293731
asI84
(lp1734
F83.934492
asI85
(lp1735
F84.928845837
asI86
(lp1736
F85.925782798
asI87
(lp1737
F86.920693747
asI88
(lp1738
F87.91822171
asI89
(lp1739
F88.913445073
asI90
(lp1740
F89.911258449
asI91
(lp1741
F90.906989658
asI92
(lp1742
F91.907188081
asI93
(lp1743
F92.906373004
asI94
(lp1744
F93.907278836
asI95
(lp1745
F94.906832404
asI96
(lp1746
F95.908097286
asI97
(lp1747
F96.908095932
asI98
(lp1748
F97.910326459
asI99
(lp1749
F98.911613177
asI100
(lp1750
F99.914327592
asI101
(lp1751
F100.915310254
asI102
(lp1752
F101.918077197
asI103
(lp1753
F102.919457238
asI104
(lp1754
F103.922892491
asI105
(lp1755
F104.924946471
asI106
(lp1756
F105.928931712
asI107
(lp1757
F106.931593654
asI108
(lp1758
F107.936074773
asI109
(lp1759
F108.939216
asI110
(lp1760
F109.94403
asI111
(lp1761
F110.94753
asI112
(lp1762
F111.95247
asI113
(lp1763
F112.95651
asI114
(lp1764
F113.96201
asI115
(lp1765
F114.96634
asasS'Nd'
p1766
(lp1767
I60
a(dp1768
I128
(lp1769
F127.93525
asI129
(lp1770
F128.933102
asI130
(lp1771
F129.928506
asI131
(lp1772
F130.92724802
asI132
(lp1773
F131.923321237
asI133
(lp1774
F132.922348
asI134
(lp1775
F133.91879021
asI135
(lp1776
F134.918181321
asI136
(lp1777
F135.914976064
asI137
(lp1778
F136.914562448
asI138
(lp1779
F137.911949718
asI139
(lp1780
F138.911953649
asI140
(lp1781
F139.909549849
asI141
(lp1782
F140.909614653
asI142
(lp1783
F141.907728996
asI143
(lp1784
F142.909819989
asI144
(lp1785
F143.910092974
asI145
(lp1786
F144.912579322
asI146
(lp1787
F145.913122628
asI147
(lp1788
F146.916106136
asI148
(lp1789
F147.916899294
asI149
(lp1790
F148.920154849
asI150
(lp1791
F149.920902249
asI151
(lp1792
F150.923840289
asI152
(lp1793
F151.924692216
asI153
(lp1794
F152.927717978
asI154
(lp1795
F153.929484894
asI155
(lp1796
F154.933135691
asI156
(lp1797
F155.935078894
asI157
(lp1798
F156.939386061
asI158
(lp1799
F157.94197
asI159
(lp1800
F158.94653
asI160
(lp1801
F159.9494
asI161
(lp1802
F160.95428
asI124
(lp1803
F123.9522
asI125
(lp1804
F124.9489
asI126
(lp1805
F125.94311
asI127
(lp1806
F126.94038
asasS'Ne'
p1807
(lp1808
I10
a(dp1809
I32
(lp1810
F32.03972
asI33
(lp1811
F33.04938
asI34
(lp1812
F34.056728
asI16
(lp1813
F16.025750197
asI17
(lp1814
F17.017713963
asI18
(lp1815
F18.005708703
asI19
(lp1816
F19.001880907
asI20
(lp1817
F19.9924401762
asI21
(lp1818
F20.993846685
asI22
(lp1819
F21.991385114
asI23
(lp1820
F22.994466905
asI24
(lp1821
F23.99361065
asI25
(lp1822
F24.997788707
asI26
(lp1823
F26.000514705
asI27
(lp1824
F27.007553268
asI28
(lp1825
F28.012121998
asI29
(lp1826
F29.019753
asI30
(lp1827
F30.024734
asI31
(lp1828
F31.033087
asasS'Np'
p1829
(lp1830
I93
a(dp1831
I219
(lp1832
F219.03143
asI220
(lp1833
F220.03254
asI221
(lp1834
F221.03204
asI222
(lp1835
F222.0333
asI223
(lp1836
F223.03285
asI224
(lp1837
F224.03422
asI225
(lp1838
F225.033910892
asI226
(lp1839
F226.035188
asI227
(lp1840
F227.034957129
asI228
(lp1841
F228.036066866
asI229
(lp1842
F229.036264139
asI230
(lp1843
F230.037827926
asI231
(lp1844
F231.038245364
asI232
(lp1845
F232.040109
asI233
(lp1846
F233.040740989
asI234
(lp1847
F234.042895256
asI235
(lp1848
F235.044063487
asI236
(lp1849
F236.046569744
asI237
(lp1850
F237.048173649
asI238
(lp1851
F238.050946611
asI239
(lp1852
F239.052939241
asI240
(lp1853
F240.056165427
asI241
(lp1854
F241.058252636
asI242
(lp1855
F242.061641379
asI243
(lp1856
F243.06428
asI244
(lp1857
F244.06785
asI245
(lp1858
F245.0708
asasS'Fr'
p1859
(lp1860
I87
a(dp1861
I199
(lp1862
F199.007258594
asI200
(lp1863
F200.006586003
asI201
(lp1864
F201.003866593
asI202
(lp1865
F202.00332
asI203
(lp1866
F203.000940729
asI204
(lp1867
F204.000652059
asI205
(lp1868
F204.998593858
asI206
(lp1869
F205.998666132
asI207
(lp1870
F206.996946478
asI208
(lp1871
F207.997138132
asI209
(lp1872
F208.995954932
asI210
(lp1873
F209.996422409
asI211
(lp1874
F210.995555723
asI212
(lp1875
F211.996225652
asI213
(lp1876
F212.996186041
asI214
(lp1877
F213.998971333
asI215
(lp1878
F215.000341838
asI216
(lp1879
F216.003189865
asI217
(lp1880
F217.004632282
asI218
(lp1881
F218.007578653
asI219
(lp1882
F219.009252427
asI220
(lp1883
F220.012327702
asI221
(lp1884
F221.014255163
asI222
(lp1885
F222.017552192
asI223
(lp1886
F223.019736013
asI224
(lp1887
F224.023398
asI225
(lp1888
F225.025572682
asI226
(lp1889
F226.029566
asI227
(lp1890
F227.031869
asI228
(lp1891
F228.035823175
asI229
(lp1892
F229.038298
asI230
(lp1893
F230.042416349
asI231
(lp1894
F231.045158
asI232
(lp1895
F232.049368
asI233
(lp1896
F233.05264
asasS'Fe'
p1897
(lp1898
I26
a(dp1899
I45
(lp1900
F45.014419
asI46
(lp1901
F46.00063
asI47
(lp1902
F46.99185
asI48
(lp1903
F47.98023
asI49
(lp1904
F48.973429
asI50
(lp1905
F49.962974929
asI51
(lp1906
F50.956841021
asI52
(lp1907
F51.948113146
asI53
(lp1908
F52.945306428
asI54
(lp1909
F53.939608986
asI55
(lp1910
F54.938291994
asI56
(lp1911
F55.934936326
asI57
(lp1912
F56.935392841
asI58
(lp1913
F57.933274431
asI59
(lp1914
F58.934874338
asI60
(lp1915
F59.9340711
asI61
(lp1916
F60.936746244
asI62
(lp1917
F61.936791812
asI63
(lp1918
F62.9402727
asI64
(lp1919
F63.940987763
asI65
(lp1920
F64.945011462
asI66
(lp1921
F65.94624996
asI67
(lp1922
F66.950543395
asI68
(lp1923
F67.95295155
asI69
(lp1924
F68.95807
asI70
(lp1925
F69.96102
asI71
(lp1926
F70.96672
asI72
(lp1927
F71.96983
asI73
(lp1928
F72.97572
asI74
(lp1929
F73.97935
asasS'Fl'
p1930
(lp1931
I114
a(dp1932
I288
(lp1933
F288.187572
asI289
(lp1934
F289.190419
asI285
(lp1935
F285.183643
asI286
(lp1936
F286.184235
asI287
(lp1937
F287.186783
asasS'Fm'
p1938
(lp1939
I100
a(dp1940
I256
(lp1941
F256.091774469
asI257
(lp1942
F257.095106078
asI258
(lp1943
F258.097077
asI259
(lp1944
F259.100597
asI260
(lp1945
F260.102809
asI241
(lp1946
F241.07421
asI242
(lp1947
F242.07343
asI243
(lp1948
F243.074465
asI244
(lp1949
F244.074038
asI245
(lp1950
F245.075349
asI246
(lp1951
F246.07535047
asI247
(lp1952
F247.076945
asI248
(lp1953
F248.077186463
asI249
(lp1954
F249.07892755
asI250
(lp1955
F250.079521034
asI251
(lp1956
F251.08153989
asI252
(lp1957
F252.08246706
asI253
(lp1958
F253.085184571
asI254
(lp1959
F254.086854397
asI255
(lp1960
F255.089964038
asasS'B'
p1961
(lp1962
I5
a(dp1963
I6
(lp1964
F6.0508
asI7
(lp1965
F7.029712
asI8
(lp1966
F8.024607326
asI9
(lp1967
F9.013329649
asI10
(lp1968
F10.012936949
asI11
(lp1969
F11.009305355
asI12
(lp1970
F12.014352658
asI13
(lp1971
F13.017780166
asI14
(lp1972
F14.025404012
asI15
(lp1973
F15.03108768
asI16
(lp1974
F16.039841663
asI17
(lp1975
F17.046989906
asI18
(lp1976
F18.055660189
asI19
(lp1977
F19.0631
asI20
(lp1978
F20.07207
asI21
(lp1979
F21.08129
asasS'F'
p1980
(lp1981
I9
a(dp1982
I14
(lp1983
F14.034315207
asI15
(lp1984
F15.018042853
asI16
(lp1985
F16.011465725
asI17
(lp1986
F17.002095237
asI18
(lp1987
F18.000937325
asI19
(lp1988
F18.9984031627
asI20
(lp1989
F19.999981252
asI21
(lp1990
F20.999948889
asI22
(lp1991
F22.002998813
asI23
(lp1992
F23.003556696
asI24
(lp1993
F24.008115485
asI25
(lp1994
F25.012199229
asI26
(lp1995
F26.020037768
asI27
(lp1996
F27.026441
asI28
(lp1997
F28.035342095
asI29
(lp1998
F29.04254
asI30
(lp1999
F30.05165
asI31
(lp2000
F31.059709
asasS'Sr'
p2001
(lp2002
I38
a(dp2003
I73
(lp2004
F72.9657
asI74
(lp2005
F73.95617
asI75
(lp2006
F74.94995277
asI76
(lp2007
F75.941762761
asI77
(lp2008
F76.937945455
asI78
(lp2009
F77.93217998
asI79
(lp2010
F78.929707664
asI80
(lp2011
F79.924517516
asI81
(lp2012
F80.923211395
asI82
(lp2013
F81.918399855
asI83
(lp2014
F82.917554374
asI84
(lp2015
F83.913419136
asI85
(lp2016
F84.912932046
asI86
(lp2017
F85.909260608
asI87
(lp2018
F86.908877531
asI88
(lp2019
F87.905612542
asI89
(lp2020
F88.907451095
asI90
(lp2021
F89.907730037
asI91
(lp2022
F90.910195442
asI92
(lp2023
F91.91103819
asI93
(lp2024
F92.914024228
asI94
(lp2025
F93.915355602
asI95
(lp2026
F94.919352941
asI96
(lp2027
F95.921706575
asI97
(lp2028
F96.92637396
asI98
(lp2029
F97.928688778
asI99
(lp2030
F98.932890666
asI100
(lp2031
F99.935769692
asI101
(lp2032
F100.940351743
asI102
(lp2033
F101.943790979
asI103
(lp2034
F102.94909
asI104
(lp2035
F103.95265
asI105
(lp2036
F104.95855
asI106
(lp2037
F105.962651
asI107
(lp2038
F106.968975
asasS'N'
p2039
(lp2040
I7
a(dp2041
I10
(lp2042
F10.04165363
asI11
(lp2043
F11.026091034
asI12
(lp2044
F12.018613187
asI13
(lp2045
F13.005738609
asI14
(lp2046
F14.0030740044
asI15
(lp2047
F15.0001088989
asI16
(lp2048
F16.006101925
asI17
(lp2049
F17.008448873
asI18
(lp2050
F18.014077565
asI19
(lp2051
F19.017021603
asI20
(lp2052
F20.023365807
asI21
(lp2053
F21.02710824
asI22
(lp2054
F22.034394934
asI23
(lp2055
F23.04114
asI24
(lp2056
F24.05039
asI25
(lp2057
F25.0601
asasS'Kr'
p2058
(lp2059
I36
a(dp2060
I69
(lp2061
F68.96518
asI70
(lp2062
F69.95604
asI71
(lp2063
F70.950265696
asI72
(lp2064
F71.942092407
asI73
(lp2065
F72.939289195
asI74
(lp2066
F73.93308402
asI75
(lp2067
F74.930945746
asI76
(lp2068
F75.925910271
asI77
(lp2069
F76.92467
asI78
(lp2070
F77.920364944
asI79
(lp2071
F78.920082923
asI80
(lp2072
F79.916378084
asI81
(lp2073
F80.916591181
asI82
(lp2074
F81.91348273
asI83
(lp2075
F82.914127164
asI84
(lp2076
F83.9114977282
asI85
(lp2077
F84.912527262
asI86
(lp2078
F85.9106106269
asI87
(lp2079
F86.91335476
asI88
(lp2080
F87.914447881
asI89
(lp2081
F88.917835451
asI90
(lp2082
F89.919527931
asI91
(lp2083
F90.923806311
asI92
(lp2084
F91.926173094
asI93
(lp2085
F92.931147174
asI94
(lp2086
F93.934140454
asI95
(lp2087
F94.939710924
asI96
(lp2088
F95.943016618
asI97
(lp2089
F96.949088785
asI98
(lp2090
F97.95243
asI99
(lp2091
F98.95839
asI100
(lp2092
F99.96237
asI101
(lp2093
F100.96873
asasS'Si'
p2094
(lp2095
I14
a(dp2096
I22
(lp2097
F22.03579
asI23
(lp2098
F23.02544
asI24
(lp2099
F24.011534538
asI25
(lp2100
F25.004108808
asI26
(lp2101
F25.992333845
asI27
(lp2102
F26.986704811
asI28
(lp2103
F27.9769265347
asI29
(lp2104
F28.9764946649
asI30
(lp2105
F29.973770136
asI31
(lp2106
F30.975363194
asI32
(lp2107
F31.974151539
asI33
(lp2108
F32.977976964
asI34
(lp2109
F33.978575569
asI35
(lp2110
F34.984583476
asI36
(lp2111
F35.986695219
asI37
(lp2112
F36.99292074
asI38
(lp2113
F37.995523
asI39
(lp2114
F39.002491
asI40
(lp2115
F40.005829
asI41
(lp2116
F41.013011
asI42
(lp2117
F42.01778
asI43
(lp2118
F43.0248
asI44
(lp2119
F44.03061
asI45
(lp2120
F45.03995
asasS'Sn'
p2121
(lp2122
I50
a(dp2123
I128
(lp2124
F127.910507184
asI129
(lp2125
F128.913464711
asI130
(lp2126
F129.91397383
asI131
(lp2127
F130.917044954
asI132
(lp2128
F131.917826725
asI133
(lp2129
F132.923913404
asI134
(lp2130
F133.928682064
asI135
(lp2131
F134.934908606
asI136
(lp2132
F135.93999
asI137
(lp2133
F136.94655
asI138
(lp2134
F137.95184
asI99
(lp2135
F98.94853
asI100
(lp2136
F99.938504196
asI101
(lp2137
F100.935259244
asI102
(lp2138
F101.930290753
asI103
(lp2139
F102.928105264
asI104
(lp2140
F103.923105204
asI105
(lp2141
F104.921268429
asI106
(lp2142
F105.916957404
asI107
(lp2143
F106.915713652
asI108
(lp2144
F107.911894287
asI109
(lp2145
F108.91129206
asI110
(lp2146
F109.907844835
asI111
(lp2147
F110.907740127
asI112
(lp2148
F111.904823874
asI113
(lp2149
F112.905175728
asI114
(lp2150
F113.902782695
asI115
(lp2151
F114.903344699
asI116
(lp2152
F115.901742797
asI117
(lp2153
F116.902953983
asI118
(lp2154
F117.901606574
asI119
(lp2155
F118.903311172
asI120
(lp2156
F119.902201634
asI121
(lp2157
F120.904242554
asI122
(lp2158
F121.903443774
asI123
(lp2159
F122.905725221
asI124
(lp2160
F123.905276645
asI125
(lp2161
F124.907786395
asI126
(lp2162
F125.907658786
asI127
(lp2163
F126.910389943
asasS'Sm'
p2164
(lp2165
I62
a(dp2166
I128
(lp2167
F127.95842
asI129
(lp2168
F128.95476
asI130
(lp2169
F129.949
asI131
(lp2170
F130.94618
asI132
(lp2171
F131.94087
asI133
(lp2172
F132.93856
asI134
(lp2173
F133.93411
asI135
(lp2174
F134.93252
asI136
(lp2175
F135.928275556
asI137
(lp2176
F136.926970517
asI138
(lp2177
F137.923243991
asI139
(lp2178
F138.922296635
asI140
(lp2179
F139.918994717
asI141
(lp2180
F140.918481636
asI142
(lp2181
F141.915204385
asI143
(lp2182
F142.914635303
asI144
(lp2183
F143.912006466
asI145
(lp2184
F144.913417339
asI146
(lp2185
F145.913046991
asI147
(lp2186
F146.914904435
asI148
(lp2187
F147.914829226
asI149
(lp2188
F148.917192062
asI150
(lp2189
F149.917282919
asI151
(lp2190
F150.919939796
asI152
(lp2191
F151.919739721
asI153
(lp2192
F152.92210465
asI154
(lp2193
F153.922216861
asI155
(lp2194
F154.924647748
asI156
(lp2195
F155.925536067
asI157
(lp2196
F156.928418698
asI158
(lp2197
F157.929951004
asI159
(lp2198
F158.933217226
asI160
(lp2199
F159.935335311
asI161
(lp2200
F160.93916017
asI162
(lp2201
F161.94146
asI163
(lp2202
F162.94555
asI164
(lp2203
F163.94836
asI165
(lp2204
F164.95297
asasS'V'
p2205
(lp2206
I23
a(dp2207
I40
(lp2208
F40.01276
asI41
(lp2209
F41.00021
asI42
(lp2210
F41.99182
asI43
(lp2211
F42.980766
asI44
(lp2212
F43.97411
asI45
(lp2213
F44.96577482
asI46
(lp2214
F45.960198775
asI47
(lp2215
F46.954904914
asI48
(lp2216
F47.952252223
asI49
(lp2217
F48.948511795
asI50
(lp2218
F49.947156014
asI51
(lp2219
F50.943957036
asI52
(lp2220
F51.944773007
asI53
(lp2221
F52.944336741
asI54
(lp2222
F53.946438617
asI55
(lp2223
F54.94724215
asI56
(lp2224
F55.95048481
asI57
(lp2225
F56.952518869
asI58
(lp2226
F57.956715235
asI59
(lp2227
F58.959385659
asI60
(lp2228
F59.96431329
asI61
(lp2229
F60.96725
asI62
(lp2230
F61.97265
asI63
(lp2231
F62.97639
asI64
(lp2232
F63.98264
asI65
(lp2233
F64.9875
asI66
(lp2234
F65.99398
asasS'Sc'
p2235
(lp2236
I21
a(dp2237
I36
(lp2238
F36.01648
asI37
(lp2239
F37.00374
asI38
(lp2240
F37.99512
asI39
(lp2241
F38.984784968
asI40
(lp2242
F39.977967291
asI41
(lp2243
F40.969251105
asI42
(lp2244
F41.965516532
asI43
(lp2245
F42.961150474
asI44
(lp2246
F43.959402875
asI45
(lp2247
F44.955908275
asI46
(lp2248
F45.955168257
asI47
(lp2249
F46.95240374
asI48
(lp2250
F47.952223611
asI49
(lp2251
F48.950014629
asI50
(lp2252
F49.952176274
asI51
(lp2253
F50.953591956
asI52
(lp2254
F51.956879479
asI53
(lp2255
F52.95909
asI54
(lp2256
F53.96393
asI55
(lp2257
F54.967818892
asI56
(lp2258
F55.97345
asI57
(lp2259
F56.97777
asI58
(lp2260
F57.98403
asI59
(lp2261
F58.98894
asI60
(lp2262
F59.99565
asI61
(lp2263
F61.001
asasS'Sb'
p2264
(lp2265
I51
a(dp2266
I128
(lp2267
F127.909145628
asI129
(lp2268
F128.909146665
asI130
(lp2269
F129.911662054
asI131
(lp2270
F130.911988799
asI132
(lp2271
F131.914507691
asI133
(lp2272
F132.915273198
asI134
(lp2273
F133.920535676
asI135
(lp2274
F134.925185106
asI136
(lp2275
F135.930745879
asI137
(lp2276
F136.935555
asI138
(lp2277
F137.94145
asI139
(lp2278
F138.94655
asI140
(lp2279
F139.95283
asI103
(lp2280
F102.93969
asI104
(lp2281
F103.936477804
asI105
(lp2282
F104.931275897
asI106
(lp2283
F105.928637982
asI107
(lp2284
F106.924150641
asI108
(lp2285
F107.922226735
asI109
(lp2286
F108.918141122
asI110
(lp2287
F109.916854287
asI111
(lp2288
F110.913218189
asI112
(lp2289
F111.912399903
asI113
(lp2290
F112.909374536
asI114
(lp2291
F113.909290189
asI115
(lp2292
F114.906598
asI116
(lp2293
F115.906793115
asI117
(lp2294
F116.904841508
asI118
(lp2295
F117.905532139
asI119
(lp2296
F118.903945471
asI120
(lp2297
F119.905079385
asI121
(lp2298
F120.903811967
asI122
(lp2299
F121.905169948
asI123
(lp2300
F122.904213204
asI124
(lp2301
F123.905934978
asI125
(lp2302
F124.905253007
asI126
(lp2303
F125.907252987
asI127
(lp2304
F126.906924278
asasS'Sg'
p2305
(lp2306
I106
a(dp2307
I258
(lp2308
F258.112983
asI259
(lp2309
F259.114396
asI260
(lp2310
F260.114384105
asI261
(lp2311
F261.115949461
asI262
(lp2312
F262.116336679
asI263
(lp2313
F263.118294
asI264
(lp2314
F264.118931
asI265
(lp2315
F265.121093
asI266
(lp2316
F266.121975
asI267
(lp2317
F267.124357
asI268
(lp2318
F268.125392
asI269
(lp2319
F269.128627
asI270
(lp2320
F270.130427
asI271
(lp2321
F271.133933
asI272
(lp2322
F272.13589
asI273
(lp2323
F273.13958
asasS'Se'
p2324
(lp2325
I34
a(dp2326
I64
(lp2327
F63.97109
asI65
(lp2328
F64.9644
asI66
(lp2329
F65.95559
asI67
(lp2330
F66.949994
asI68
(lp2331
F67.941825238
asI69
(lp2332
F68.939414847
asI70
(lp2333
F69.933515523
asI71
(lp2334
F70.932209433
asI72
(lp2335
F71.927140507
asI73
(lp2336
F72.926754882
asI74
(lp2337
F73.922475934
asI75
(lp2338
F74.92252287
asI76
(lp2339
F75.919213704
asI77
(lp2340
F76.919914154
asI78
(lp2341
F77.91730928
asI79
(lp2342
F78.918499287
asI80
(lp2343
F79.916521762
asI81
(lp2344
F80.917993023
asI82
(lp2345
F81.916699497
asI83
(lp2346
F82.919118569
asI84
(lp2347
F83.918466763
asI85
(lp2348
F84.92226076
asI86
(lp2349
F85.924311733
asI87
(lp2350
F86.928688618
asI88
(lp2351
F87.931417492
asI89
(lp2352
F88.93666906
asI90
(lp2353
F89.940096
asI91
(lp2354
F90.94596
asI92
(lp2355
F91.94984
asI93
(lp2356
F92.95629
asI94
(lp2357
F93.96049
asI95
(lp2358
F94.9673
asasS'Co'
p2359
(lp2360
I27
a(dp2361
I47
(lp2362
F47.01057
asI48
(lp2363
F48.00093
asI49
(lp2364
F48.98891
asI50
(lp2365
F49.98091
asI51
(lp2366
F50.970647
asI52
(lp2367
F51.96351
asI53
(lp2368
F52.954204077
asI54
(lp2369
F53.948459872
asI55
(lp2370
F54.941997202
asI56
(lp2371
F55.939838798
asI57
(lp2372
F56.936290574
asI58
(lp2373
F57.935752073
asI59
(lp2374
F58.933194288
asI60
(lp2375
F59.933816299
asI61
(lp2376
F60.93247662
asI62
(lp2377
F61.934058809
asI63
(lp2378
F62.933600217
asI64
(lp2379
F63.935810764
asI65
(lp2380
F64.936462072
asI66
(lp2381
F65.939442945
asI67
(lp2382
F66.940609627
asI68
(lp2383
F67.944257589
asI69
(lp2384
F68.946141268
asI70
(lp2385
F69.94963
asI71
(lp2386
F70.952366923
asI72
(lp2387
F71.95729
asI73
(lp2388
F72.96039
asI74
(lp2389
F73.96515
asI75
(lp2390
F74.96876
asI76
(lp2391
F75.97413
asasS'Cn'
p2392
(lp2393
I112
a(dp2394
I276
(lp2395
F276.16141
asI277
(lp2396
F277.163641
asI278
(lp2397
F278.164156
asI279
(lp2398
F279.166542
asI280
(lp2399
F280.167147
asI281
(lp2400
F281.169746
asI282
(lp2401
F282.170496
asI283
(lp2402
F283.17327
asI284
(lp2403
F284.174156
asI285
(lp2404
F285.177117
asasS'Cm'
p2405
(lp2406
I96
a(dp2407
I232
(lp2408
F232.049817
asI233
(lp2409
F233.050770001
asI234
(lp2410
F234.050160237
asI235
(lp2411
F235.051542
asI236
(lp2412
F236.051374477
asI237
(lp2413
F237.052869294
asI238
(lp2414
F238.05308142
asI239
(lp2415
F239.054910117
asI240
(lp2416
F240.055529681
asI241
(lp2417
F241.05765317
asI242
(lp2418
F242.058836039
asI243
(lp2419
F243.061389325
asI244
(lp2420
F244.062752783
asI245
(lp2421
F245.065491454
asI246
(lp2422
F246.067223841
asI247
(lp2423
F247.070354131
asI248
(lp2424
F248.072349862
asI249
(lp2425
F249.075954767
asI250
(lp2426
F250.078358313
asI251
(lp2427
F251.082286441
asI252
(lp2428
F252.08487
asasS'Cl'
p2429
(lp2430
I17
a(dp2431
I28
(lp2432
F28.02954
asI29
(lp2433
F29.01478
asI30
(lp2434
F30.00477
asI31
(lp2435
F30.992414203
asI32
(lp2436
F31.985684637
asI33
(lp2437
F32.977451989
asI34
(lp2438
F33.973762485
asI35
(lp2439
F34.968852682
asI36
(lp2440
F35.968306809
asI37
(lp2441
F36.965902602
asI38
(lp2442
F37.968010436
asI39
(lp2443
F38.968008176
asI40
(lp2444
F39.970415469
asI41
(lp2445
F40.970684525
asI42
(lp2446
F41.973254804
asI43
(lp2447
F42.973888584
asI44
(lp2448
F43.977874543
asI45
(lp2449
F44.98029
asI46
(lp2450
F45.985174
asI47
(lp2451
F46.98916
asI48
(lp2452
F47.99564
asI49
(lp2453
F49.00123
asI50
(lp2454
F50.00905
asI51
(lp2455
F51.01554
asasS'Ca'
p2456
(lp2457
I20
a(dp2458
I34
(lp2459
F34.01487
asI35
(lp2460
F35.00514
asI36
(lp2461
F35.993074404
asI37
(lp2462
F36.985897852
asI38
(lp2463
F37.976319224
asI39
(lp2464
F38.970710813
asI40
(lp2465
F39.962590863
asI41
(lp2466
F40.962277924
asI42
(lp2467
F41.95861783
asI43
(lp2468
F42.958766438
asI44
(lp2469
F43.955481561
asI45
(lp2470
F44.95618635
asI46
(lp2471
F45.953689023
asI47
(lp2472
F46.95454243
asI48
(lp2473
F47.952522765
asI49
(lp2474
F48.955662736
asI50
(lp2475
F49.957499217
asI51
(lp2476
F50.960988981
asI52
(lp2477
F51.963217145
asI53
(lp2478
F52.96945
asI54
(lp2479
F53.9734
asI55
(lp2480
F54.9803
asI56
(lp2481
F55.98508
asI57
(lp2482
F56.99262
asI58
(lp2483
F57.99794
asasS'Cf'
p2484
(lp2485
I98
a(dp2486
I256
(lp2487
F256.093442
asI237
(lp2488
F237.062197789
asI238
(lp2489
F238.06149
asI239
(lp2490
F239.062529
asI240
(lp2491
F240.062255728
asI241
(lp2492
F241.06369
asI242
(lp2493
F242.063754274
asI243
(lp2494
F243.065477
asI244
(lp2495
F244.066000801
asI245
(lp2496
F245.068048677
asI246
(lp2497
F246.068805531
asI247
(lp2498
F247.070965463
asI248
(lp2499
F248.072185066
asI249
(lp2500
F249.074853903
asI250
(lp2501
F250.076406244
asI251
(lp2502
F251.079588625
asI252
(lp2503
F252.081627199
asI253
(lp2504
F253.085134499
asI254
(lp2505
F254.087324263
asI255
(lp2506
F255.091048
asasS'Ce'
p2507
(lp2508
I58
a(dp2509
I128
(lp2510
F127.918911
asI129
(lp2511
F128.918102
asI130
(lp2512
F129.914736
asI131
(lp2513
F130.914429465
asI132
(lp2514
F131.911463775
asI133
(lp2515
F132.911520402
asI134
(lp2516
F133.908928142
asI135
(lp2517
F134.909160599
asI136
(lp2518
F135.907129205
asI137
(lp2519
F136.907762364
asI138
(lp2520
F137.905991089
asI139
(lp2521
F138.906655111
asI140
(lp2522
F139.905443107
asI141
(lp2523
F140.908280674
asI142
(lp2524
F141.909250375
asI143
(lp2525
F142.91239212
asI144
(lp2526
F143.913652939
asI145
(lp2527
F144.917265228
asI146
(lp2528
F145.918802412
asI147
(lp2529
F146.922689913
asI148
(lp2530
F147.924424225
asI149
(lp2531
F148.9284269
asI150
(lp2532
F149.930384042
asI151
(lp2533
F150.9342722
asI152
(lp2534
F151.9366
asI153
(lp2535
F152.94093
asI154
(lp2536
F153.9438
asI155
(lp2537
F154.94855
asI156
(lp2538
F155.95183
asI157
(lp2539
F156.95705
asI119
(lp2540
F118.95271
asI120
(lp2541
F119.94654
asI121
(lp2542
F120.94335
asI122
(lp2543
F121.93787
asI123
(lp2544
F122.93528
asI124
(lp2545
F123.93031
asI125
(lp2546
F124.92844
asI126
(lp2547
F125.923971
asI127
(lp2548
F126.922727
asasS'Cd'
p2549
(lp2550
I48
a(dp2551
I128
(lp2552
F127.927812858
asI129
(lp2553
F128.93182
asI130
(lp2554
F129.933940679
asI131
(lp2555
F130.9406
asI132
(lp2556
F131.94604
asI133
(lp2557
F132.95285
asI95
(lp2558
F94.94994
asI96
(lp2559
F95.94034
asI97
(lp2560
F96.9351
asI98
(lp2561
F97.927389318
asI99
(lp2562
F98.924925848
asI100
(lp2563
F99.92034882
asI101
(lp2564
F100.918586211
asI102
(lp2565
F101.914481967
asI103
(lp2566
F102.913416517
asI104
(lp2567
F103.909856386
asI105
(lp2568
F104.909463896
asI106
(lp2569
F105.906459928
asI107
(lp2570
F106.906612122
asI108
(lp2571
F107.90418344
asI109
(lp2572
F108.904986653
asI110
(lp2573
F109.903006606
asI111
(lp2574
F110.904182872
asI112
(lp2575
F111.902762868
asI113
(lp2576
F112.904408133
asI114
(lp2577
F113.903365086
asI115
(lp2578
F114.905437513
asI116
(lp2579
F115.904763148
asI117
(lp2580
F116.907225956
asI118
(lp2581
F117.906921869
asI119
(lp2582
F118.909846851
asI120
(lp2583
F119.909868068
asI121
(lp2584
F120.912963663
asI122
(lp2585
F121.913459053
asI123
(lp2586
F122.916892453
asI124
(lp2587
F123.917657364
asI125
(lp2588
F124.921257577
asI126
(lp2589
F125.922429128
asI127
(lp2590
F126.926472404
asasS'Lu'
p2591
(lp2592
I71
a(dp2593
I150
(lp2594
F149.973548
asI151
(lp2595
F150.967677
asI152
(lp2596
F151.96412
asI153
(lp2597
F152.958751054
asI154
(lp2598
F153.957364
asI155
(lp2599
F154.9543206
asI156
(lp2600
F155.953032522
asI157
(lp2601
F156.950126667
asI158
(lp2602
F157.949315507
asI159
(lp2603
F158.946635615
asI160
(lp2604
F159.946033
asI161
(lp2605
F160.943572
asI162
(lp2606
F161.943282776
asI163
(lp2607
F162.941179
asI164
(lp2608
F163.941339
asI165
(lp2609
F164.939406758
asI166
(lp2610
F165.939859
asI167
(lp2611
F166.93827
asI168
(lp2612
F167.938735635
asI169
(lp2613
F168.937644149
asI170
(lp2614
F169.938478365
asI171
(lp2615
F170.93791696
asI172
(lp2616
F171.939089103
asI173
(lp2617
F172.938934029
asI174
(lp2618
F173.940340854
asI175
(lp2619
F174.940775191
asI176
(lp2620
F175.94268968
asI177
(lp2621
F176.943761525
asI178
(lp2622
F177.945958018
asI179
(lp2623
F178.947330935
asI180
(lp2624
F179.94988825
asI181
(lp2625
F180.951908
asI182
(lp2626
F181.95504
asI183
(lp2627
F182.957363
asI184
(lp2628
F183.96091
asI185
(lp2629
F184.96362
asasS'Cs'
p2630
(lp2631
I55
a(dp2632
I128
(lp2633
F127.907748666
asI129
(lp2634
F128.906065683
asI130
(lp2635
F129.906709283
asI131
(lp2636
F130.905464899
asI132
(lp2637
F131.906433914
asI133
(lp2638
F132.905451961
asI134
(lp2639
F133.906718503
asI135
(lp2640
F134.905977049
asI136
(lp2641
F135.907311358
asI137
(lp2642
F136.907089231
asI138
(lp2643
F137.911017089
asI139
(lp2644
F138.913363758
asI140
(lp2645
F139.917283063
asI141
(lp2646
F140.920045491
asI142
(lp2647
F141.924295991
asI143
(lp2648
F142.927349327
asI144
(lp2649
F143.932076313
asI145
(lp2650
F144.935527435
asI146
(lp2651
F145.940344271
asI147
(lp2652
F146.944156156
asI148
(lp2653
F147.949225137
asI149
(lp2654
F148.95302
asI150
(lp2655
F149.95833
asI151
(lp2656
F150.96258
asI112
(lp2657
F111.950308558
asI113
(lp2658
F112.944429144
asI114
(lp2659
F113.941296176
asI115
(lp2660
F114.93591
asI116
(lp2661
F115.933373
asI117
(lp2662
F116.928616726
asI118
(lp2663
F117.926559519
asI119
(lp2664
F118.92237733
asI120
(lp2665
F119.920677279
asI121
(lp2666
F120.917227238
asI122
(lp2667
F121.916108146
asI123
(lp2668
F122.912996063
asI124
(lp2669
F123.912257798
asI125
(lp2670
F124.909727985
asI126
(lp2671
F125.909446057
asI127
(lp2672
F126.907417384
asasS'Cr'
p2673
(lp2674
I24
a(dp2675
I42
(lp2676
F42.0067
asI43
(lp2677
F42.99753
asI44
(lp2678
F43.98536
asI45
(lp2679
F44.97905
asI46
(lp2680
F45.968358861
asI47
(lp2681
F46.962897359
asI48
(lp2682
F47.954029061
asI49
(lp2683
F48.951333349
asI50
(lp2684
F49.946041833
asI51
(lp2685
F50.944765018
asI52
(lp2686
F51.940506231
asI53
(lp2687
F52.940648147
asI54
(lp2688
F53.938879158
asI55
(lp2689
F54.940838434
asI56
(lp2690
F55.940653139
asI57
(lp2691
F56.943613013
asI58
(lp2692
F57.944353129
asI59
(lp2693
F58.948586367
asI60
(lp2694
F59.950076033
asI61
(lp2695
F60.954422585
asI62
(lp2696
F61.956097451
asI63
(lp2697
F62.961650731
asI64
(lp2698
F63.96408
asI65
(lp2699
F64.96996
asI66
(lp2700
F65.97366
asI67
(lp2701
F66.98016
asI68
(lp2702
F67.98403
asasS'Cu'
p2703
(lp2704
I29
a(dp2705
I52
(lp2706
F51.99671
asI53
(lp2707
F52.98459
asI54
(lp2708
F53.97666
asI55
(lp2709
F54.966038
asI56
(lp2710
F55.95895
asI57
(lp2711
F56.949212498
asI58
(lp2712
F57.944533046
asI59
(lp2713
F58.939497482
asI60
(lp2714
F59.937364544
asI61
(lp2715
F60.933457612
asI62
(lp2716
F61.932595415
asI63
(lp2717
F62.929597723
asI64
(lp2718
F63.929764342
asI65
(lp2719
F64.927789704
asI66
(lp2720
F65.928869032
asI67
(lp2721
F66.927730314
asI68
(lp2722
F67.929610889
asI69
(lp2723
F68.929429269
asI70
(lp2724
F69.932392079
asI71
(lp2725
F70.932676833
asI72
(lp2726
F71.935820307
asI73
(lp2727
F72.936674378
asI74
(lp2728
F73.939874862
asI75
(lp2729
F74.941522606
asI76
(lp2730
F75.945275026
asI77
(lp2731
F76.94792
asI78
(lp2732
F77.95223
asI79
(lp2733
F78.95502
asI80
(lp2734
F79.96089
asI81
(lp2735
F80.965872
asI82
(lp2736
F81.972442
asasS'La'
p2737
(lp2738
I57
a(dp2739
I128
(lp2740
F127.915592123
asI129
(lp2741
F128.912694431
asI130
(lp2742
F129.912369413
asI131
(lp2743
F130.91007
asI132
(lp2744
F131.910118979
asI133
(lp2745
F132.908218
asI134
(lp2746
F133.908514011
asI135
(lp2747
F134.906984363
asI136
(lp2748
F135.907634962
asI137
(lp2749
F136.906450385
asI138
(lp2750
F137.907114919
asI139
(lp2751
F138.906356256
asI140
(lp2752
F139.909480635
asI141
(lp2753
F140.91096603
asI142
(lp2754
F141.91409089
asI143
(lp2755
F142.916079512
asI144
(lp2756
F143.919645589
asI145
(lp2757
F144.921808068
asI146
(lp2758
F145.925875174
asI147
(lp2759
F146.9284178
asI148
(lp2760
F147.9326794
asI149
(lp2761
F148.93535126
asI150
(lp2762
F149.93947
asI151
(lp2763
F150.94232
asI152
(lp2764
F151.94682
asI153
(lp2765
F152.95036
asI154
(lp2766
F153.95517
asI155
(lp2767
F154.95901
asI116
(lp2768
F115.956304
asI117
(lp2769
F116.949985
asI118
(lp2770
F117.94673
asI119
(lp2771
F118.94099
asI120
(lp2772
F119.93807
asI121
(lp2773
F120.93315
asI122
(lp2774
F121.93071
asI123
(lp2775
F122.9263
asI124
(lp2776
F123.924574275
asI125
(lp2777
F124.920815932
asI126
(lp2778
F125.919512667
asI127
(lp2779
F126.916375084
asasS'Li'
p2780
(lp2781
I3
a(dp2782
I3
(lp2783
F3.030775
asI4
(lp2784
F4.027185559
asI5
(lp2785
F5.0125378
asI6
(lp2786
F6.01512288742
asI7
(lp2787
F7.01600343659
asI8
(lp2788
F8.022486246
asI9
(lp2789
F9.026790191
asI10
(lp2790
F10.035483453
asI11
(lp2791
F11.043723581
asI12
(lp2792
F12.052517322
asI13
(lp2793
F13.062631523
asasS'Lv'
p2794
(lp2795
I116
a(dp2796
I289
(lp2797
F289.198162
asI290
(lp2798
F290.198638
asI291
(lp2799
F291.201077
asI292
(lp2800
F292.201742
asI293
(lp2801
F293.204487
asasS'Tl'
p2802
(lp2803
I81
a(dp2804
I176
(lp2805
F176.000624028
asI177
(lp2806
F176.996430829
asI178
(lp2807
F177.994854
asI179
(lp2808
F178.991110696
asI180
(lp2809
F179.990056524
asI181
(lp2810
F180.986259979
asI182
(lp2811
F181.985713159
asI183
(lp2812
F182.982192839
asI184
(lp2813
F183.981885851
asI185
(lp2814
F184.97878905
asI186
(lp2815
F185.978650841
asI187
(lp2816
F186.975906348
asI188
(lp2817
F187.976020886
asI189
(lp2818
F188.973588471
asI190
(lp2819
F189.973828
asI191
(lp2820
F190.971784199
asI192
(lp2821
F191.972225
asI193
(lp2822
F192.970501998
asI194
(lp2823
F193.971081412
asI195
(lp2824
F194.969774268
asI196
(lp2825
F195.970481193
asI197
(lp2826
F196.96957589
asI198
(lp2827
F197.970483065
asI199
(lp2828
F198.969877
asI200
(lp2829
F199.970963258
asI201
(lp2830
F200.970822212
asI202
(lp2831
F201.972102441
asI203
(lp2832
F202.972344593
asI204
(lp2833
F203.9738639
asI205
(lp2834
F204.974427801
asI206
(lp2835
F205.976110589
asI207
(lp2836
F206.977419712
asI208
(lp2837
F207.982019001
asI209
(lp2838
F208.985359353
asI210
(lp2839
F209.990073958
asI211
(lp2840
F210.993475
asI212
(lp2841
F211.998335
asI213
(lp2842
F213.001915
asI214
(lp2843
F214.00694
asI215
(lp2844
F215.01064
asI216
(lp2845
F216.0158
asI217
(lp2846
F217.01966
asI218
(lp2847
F218.02479
asasS'Tm'
p2848
(lp2849
I69
a(dp2850
I144
(lp2851
F143.976283
asI145
(lp2852
F144.970389
asI146
(lp2853
F145.966837
asI147
(lp2854
F146.961379891
asI148
(lp2855
F147.958384029
asI149
(lp2856
F148.95289
asI150
(lp2857
F149.95009
asI151
(lp2858
F150.945487875
asI152
(lp2859
F151.944422
asI153
(lp2860
F152.942040101
asI154
(lp2861
F153.941570033
asI155
(lp2862
F154.93920966
asI156
(lp2863
F155.938991573
asI157
(lp2864
F156.93694412
asI158
(lp2865
F157.936979525
asI159
(lp2866
F158.934975
asI160
(lp2867
F159.935263106
asI161
(lp2868
F160.933549
asI162
(lp2869
F161.934002277
asI163
(lp2870
F162.932659172
asI164
(lp2871
F163.933543614
asI165
(lp2872
F164.93244314
asI166
(lp2873
F165.9335606
asI167
(lp2874
F166.932856192
asI168
(lp2875
F167.934177409
asI169
(lp2876
F168.934217889
asI170
(lp2877
F169.935806032
asI171
(lp2878
F170.936433871
asI172
(lp2879
F171.938405521
asI173
(lp2880
F172.939608371
asI174
(lp2881
F173.942172953
asI175
(lp2882
F174.9438412
asI176
(lp2883
F175.946999449
asI177
(lp2884
F176.94904
asI178
(lp2885
F177.95264
asI179
(lp2886
F178.95534
asasS'Lr'
p2887
(lp2888
I103
a(dp2889
I256
(lp2890
F256.09849403
asI257
(lp2891
F257.099418
asI258
(lp2892
F258.101755
asI259
(lp2893
F259.102902
asI260
(lp2894
F260.105505
asI261
(lp2895
F261.106884
asI262
(lp2896
F262.109612
asI263
(lp2897
F263.111359
asI264
(lp2898
F264.114201
asI265
(lp2899
F265.116193
asI266
(lp2900
F266.119831
asI251
(lp2901
F251.09418
asI252
(lp2902
F252.095264
asI253
(lp2903
F253.095091
asI254
(lp2904
F254.096483
asI255
(lp2905
F255.096562404
asasS'Th'
p2906
(lp2907
I90
a(dp2908
I208
(lp2909
F208.017900275
asI209
(lp2910
F209.017752974
asI210
(lp2911
F210.015093642
asI211
(lp2912
F211.014929468
asI212
(lp2913
F212.012987595
asI213
(lp2914
F213.013009223
asI214
(lp2915
F214.011500159
asI215
(lp2916
F215.011724774
asI216
(lp2917
F216.011056007
asI217
(lp2918
F217.013116701
asI218
(lp2919
F218.013276331
asI219
(lp2920
F219.015537481
asI220
(lp2921
F220.015748148
asI221
(lp2922
F221.018184072
asI222
(lp2923
F222.018468521
asI223
(lp2924
F223.020811853
asI224
(lp2925
F224.021464382
asI225
(lp2926
F225.023951363
asI226
(lp2927
F226.024903383
asI227
(lp2928
F227.027704227
asI228
(lp2929
F228.028741272
asI229
(lp2930
F229.031762713
asI230
(lp2931
F230.03313413
asI231
(lp2932
F231.036304628
asI232
(lp2933
F232.03805576
asI233
(lp2934
F233.041582278
asI234
(lp2935
F234.043601407
asI235
(lp2936
F235.047255
asI236
(lp2937
F236.049657
asI237
(lp2938
F237.053629
asI238
(lp2939
F238.056496
asI239
(lp2940
F239.06077
asasS'Ti'
p2941
(lp2942
I22
a(dp2943
I38
(lp2944
F38.01145
asI39
(lp2945
F39.00236
asI40
(lp2946
F39.990498719
asI41
(lp2947
F40.983148
asI42
(lp2948
F41.973049034
asI43
(lp2949
F42.96852252
asI44
(lp2950
F43.959689949
asI45
(lp2951
F44.958121983
asI46
(lp2952
F45.952627718
asI47
(lp2953
F46.951758787
asI48
(lp2954
F47.947941979
asI49
(lp2955
F48.947865676
asI50
(lp2956
F49.944786889
asI51
(lp2957
F50.946610651
asI52
(lp2958
F51.946893006
asI53
(lp2959
F52.949725933
asI54
(lp2960
F53.951049547
asI55
(lp2961
F54.955268064
asI56
(lp2962
F55.957911353
asI57
(lp2963
F56.963641626
asI58
(lp2964
F57.9666
asI59
(lp2965
F58.97247
asI60
(lp2966
F59.97603
asI61
(lp2967
F60.98245
asI62
(lp2968
F61.98651
asI63
(lp2969
F62.99375
asasS'Te'
p2970
(lp2971
I52
a(dp2972
I128
(lp2973
F127.904461279
asI129
(lp2974
F128.90659646
asI130
(lp2975
F129.906222748
asI131
(lp2976
F130.908522213
asI132
(lp2977
F131.908546716
asI133
(lp2978
F132.910968766
asI134
(lp2979
F133.911393959
asI135
(lp2980
F134.916555706
asI136
(lp2981
F135.920100608
asI137
(lp2982
F136.925598852
asI138
(lp2983
F137.929472226
asI139
(lp2984
F138.935367194
asI140
(lp2985
F139.939498567
asI141
(lp2986
F140.9458
asI142
(lp2987
F141.95022
asI143
(lp2988
F142.95676
asI105
(lp2989
F104.943304508
asI106
(lp2990
F105.937499664
asI107
(lp2991
F106.935011573
asI108
(lp2992
F107.929380467
asI109
(lp2993
F108.927304534
asI110
(lp2994
F109.922458091
asI111
(lp2995
F110.921000589
asI112
(lp2996
F111.91672785
asI113
(lp2997
F112.915891
asI114
(lp2998
F113.912089
asI115
(lp2999
F114.911902
asI116
(lp3000
F115.90846
asI117
(lp3001
F116.908646298
asI118
(lp3002
F117.905853629
asI119
(lp3003
F118.906407108
asI120
(lp3004
F119.9040593
asI121
(lp3005
F120.904943812
asI122
(lp3006
F121.903043455
asI123
(lp3007
F122.904269769
asI124
(lp3008
F123.902817085
asI125
(lp3009
F124.90442992
asI126
(lp3010
F125.903310886
asI127
(lp3011
F126.905225735
asasS'Tb'
p3012
(lp3013
I65
a(dp3014
I135
(lp3015
F134.96476
asI136
(lp3016
F135.96129
asI137
(lp3017
F136.95602
asI138
(lp3018
F137.95312
asI139
(lp3019
F138.94833
asI140
(lp3020
F139.945805049
asI141
(lp3021
F140.941448
asI142
(lp3022
F141.939280859
asI143
(lp3023
F142.935137335
asI144
(lp3024
F143.933045
asI145
(lp3025
F144.928821947
asI146
(lp3026
F145.927252984
asI147
(lp3027
F146.924054788
asI148
(lp3028
F147.924281552
asI149
(lp3029
F148.923253549
asI150
(lp3030
F149.923664941
asI151
(lp3031
F150.923109599
asI152
(lp3032
F151.924082936
asI153
(lp3033
F152.923442403
asI154
(lp3034
F153.924684767
asI155
(lp3035
F154.923510547
asI156
(lp3036
F155.924755181
asI157
(lp3037
F156.924033028
asI158
(lp3038
F157.925420947
asI159
(lp3039
F158.92535471
asI160
(lp3040
F159.927175556
asI161
(lp3041
F160.927577825
asI162
(lp3042
F161.92949536
asI163
(lp3043
F162.930654659
asI164
(lp3044
F163.933357961
asI165
(lp3045
F164.93498
asI166
(lp3046
F165.937859521
asI167
(lp3047
F166.93996
asI168
(lp3048
F167.9434
asI169
(lp3049
F168.94597
asI170
(lp3050
F169.94984
asI171
(lp3051
F170.95273
asasS'Tc'
p3052
(lp3053
I43
a(dp3054
I85
(lp3055
F84.95058
asI86
(lp3056
F85.94493
asI87
(lp3057
F86.938067187
asI88
(lp3058
F87.933782381
asI89
(lp3059
F88.927648651
asI90
(lp3060
F89.924073921
asI91
(lp3061
F90.918425397
asI92
(lp3062
F91.915269779
asI93
(lp3063
F92.910245952
asI94
(lp3064
F93.909653637
asI95
(lp3065
F94.907653612
asI96
(lp3066
F95.907868022
asI97
(lp3067
F96.906366706
asI98
(lp3068
F97.907212365
asI99
(lp3069
F98.906250844
asI100
(lp3070
F99.907653877
asI101
(lp3071
F100.907309057
asI102
(lp3072
F101.909209733
asI103
(lp3073
F102.909176131
asI104
(lp3074
F103.911424888
asI105
(lp3075
F104.911654883
asI106
(lp3076
F105.914357598
asI107
(lp3077
F106.915460645
asI108
(lp3078
F107.918495722
asI109
(lp3079
F108.920256356
asI110
(lp3080
F109.923743534
asI111
(lp3081
F110.925901257
asI112
(lp3082
F111.929945813
asI113
(lp3083
F112.932569035
asI114
(lp3084
F113.93691
asI115
(lp3085
F114.93998
asI116
(lp3086
F115.94476
asI117
(lp3087
F116.94806
asI118
(lp3088
F117.95299
asI119
(lp3089
F118.95666
asI120
(lp3090
F119.96187
asasS'Ta'
p3091
(lp3092
I73
a(dp3093
I155
(lp3094
F154.974245
asI156
(lp3095
F155.97203
asI157
(lp3096
F156.968176167
asI158
(lp3097
F157.966541
asI159
(lp3098
F158.963022556
asI160
(lp3099
F159.96148751
asI161
(lp3100
F160.958452265
asI162
(lp3101
F161.957294083
asI163
(lp3102
F162.95433711
asI164
(lp3103
F163.953534
asI165
(lp3104
F164.950780572
asI166
(lp3105
F165.950512
asI167
(lp3106
F166.948093
asI168
(lp3107
F167.948047
asI169
(lp3108
F168.946011
asI170
(lp3109
F169.946175
asI171
(lp3110
F170.944476
asI172
(lp3111
F171.944895
asI173
(lp3112
F172.94375
asI174
(lp3113
F173.944454
asI175
(lp3114
F174.943737
asI176
(lp3115
F175.944857
asI177
(lp3116
F176.944479469
asI178
(lp3117
F177.945678
asI179
(lp3118
F178.945936555
asI180
(lp3119
F179.947464832
asI181
(lp3120
F180.947995769
asI182
(lp3121
F181.950151853
asI183
(lp3122
F182.95137262
asI184
(lp3123
F183.954007694
asI185
(lp3124
F184.955559084
asI186
(lp3125
F185.958550667
asI187
(lp3126
F186.960386
asI188
(lp3127
F187.963916
asI189
(lp3128
F188.96583
asI190
(lp3129
F189.96939
asI191
(lp3130
F190.97156
asI192
(lp3131
F191.97514
asasS'Yb'
p3132
(lp3133
I70
a(dp3134
I148
(lp3135
F147.96758
asI149
(lp3136
F148.96436
asI150
(lp3137
F149.95852
asI151
(lp3138
F150.955402497
asI152
(lp3139
F151.9502727
asI153
(lp3140
F152.94932
asI154
(lp3141
F153.946395655
asI155
(lp3142
F154.945783132
asI156
(lp3143
F155.942824698
asI157
(lp3144
F156.942645349
asI158
(lp3145
F157.939870549
asI159
(lp3146
F158.940054623
asI160
(lp3147
F159.937557406
asI161
(lp3148
F160.937907138
asI162
(lp3149
F161.935773604
asI163
(lp3150
F162.936339632
asI164
(lp3151
F163.934494934
asI165
(lp3152
F164.935270241
asI166
(lp3153
F165.933874749
asI167
(lp3154
F166.934952988
asI168
(lp3155
F167.933889602
asI169
(lp3156
F168.935182512
asI170
(lp3157
F169.934766376
asI171
(lp3158
F170.936330208
asI172
(lp3159
F171.936385872
asI173
(lp3160
F172.938215136
asI174
(lp3161
F173.938866437
asI175
(lp3162
F174.941280797
asI176
(lp3163
F175.942576447
asI177
(lp3164
F176.945265586
asI178
(lp3165
F177.946651444
asI179
(lp3166
F178.95004
asI180
(lp3167
F179.95212
asI181
(lp3168
F180.95589
asasS'Db'
p3169
(lp3170
I105
a(dp3171
I256
(lp3172
F256.10789
asI257
(lp3173
F257.107578
asI258
(lp3174
F258.109285
asI259
(lp3175
F259.109491866
asI260
(lp3176
F260.111297
asI261
(lp3177
F261.111917
asI262
(lp3178
F262.114072
asI263
(lp3179
F263.11499
asI264
(lp3180
F264.117405
asI265
(lp3181
F265.118613
asI266
(lp3182
F266.121029
asI267
(lp3183
F267.122465
asI268
(lp3184
F268.125671
asI269
(lp3185
F269.127911
asI270
(lp3186
F270.131356
asI255
(lp3187
F255.107068
asasS'Dy'
p3188
(lp3189
I66
a(dp3190
I138
(lp3191
F137.9625
asI139
(lp3192
F138.95959
asI140
(lp3193
F139.95402
asI141
(lp3194
F140.95128
asI142
(lp3195
F141.946194
asI143
(lp3196
F142.943994335
asI144
(lp3197
F143.939269515
asI145
(lp3198
F144.937473995
asI146
(lp3199
F145.93284453
asI147
(lp3200
F146.931082715
asI148
(lp3201
F147.927156571
asI149
(lp3202
F148.927321692
asI150
(lp3203
F149.925593264
asI151
(lp3204
F150.926191564
asI152
(lp3205
F151.924725286
asI153
(lp3206
F152.925772378
asI154
(lp3207
F153.924429277
asI155
(lp3208
F154.925759086
asI156
(lp3209
F155.924284713
asI157
(lp3210
F156.92547066
asI158
(lp3211
F157.924415875
asI159
(lp3212
F158.925746958
asI160
(lp3213
F159.925204646
asI161
(lp3214
F160.926940492
asI162
(lp3215
F161.926805573
asI163
(lp3216
F162.928738284
asI164
(lp3217
F163.929181874
asI165
(lp3218
F164.931710456
asI166
(lp3219
F165.932813863
asI167
(lp3220
F166.935661379
asI168
(lp3221
F167.937133273
asI169
(lp3222
F168.940313531
asI170
(lp3223
F169.94239
asI171
(lp3224
F170.94612
asI172
(lp3225
F171.94846
asI173
(lp3226
F172.95283
asasS'Ds'
p3227
(lp3228
I110
a(dp3229
I267
(lp3230
F267.143768
asI268
(lp3231
F268.143478
asI269
(lp3232
F269.144752124
asI270
(lp3233
F270.144584153
asI271
(lp3234
F271.145946
asI272
(lp3235
F272.14602
asI273
(lp3236
F273.14856
asI274
(lp3237
F274.149411
asI275
(lp3238
F275.152033
asI276
(lp3239
F276.153025
asI277
(lp3240
F277.155914
asI278
(lp3241
F278.15704
asI279
(lp3242
F279.160097
asI280
(lp3243
F280.161311
asI281
(lp3244
F281.164511
asasS'I'
p3245
(lp3246
I53
a(dp3247
I128
(lp3248
F127.905808615
asI129
(lp3249
F128.904983669
asI130
(lp3250
F129.906670193
asI131
(lp3251
F130.906126305
asI132
(lp3252
F131.907993514
asI133
(lp3253
F132.907796968
asI134
(lp3254
F133.909758836
asI135
(lp3255
F134.910048847
asI136
(lp3256
F135.914604412
asI137
(lp3257
F136.918028188
asI138
(lp3258
F137.922726402
asI139
(lp3259
F138.926506206
asI140
(lp3260
F139.931727
asI141
(lp3261
F140.93569
asI142
(lp3262
F141.941202
asI143
(lp3263
F142.94565
asI144
(lp3264
F143.95139
asI145
(lp3265
F144.95605
asI107
(lp3266
F106.94678
asI108
(lp3267
F107.943481623
asI109
(lp3268
F108.938085287
asI110
(lp3269
F109.935089034
asI111
(lp3270
F110.930269214
asI112
(lp3271
F111.92800455
asI113
(lp3272
F112.923650064
asI114
(lp3273
F113.92185
asI115
(lp3274
F114.918048
asI116
(lp3275
F115.916808658
asI117
(lp3276
F116.913648312
asI118
(lp3277
F117.913074
asI119
(lp3278
F118.910074
asI120
(lp3279
F119.910087251
asI121
(lp3280
F120.90740505
asI122
(lp3281
F121.907588841
asI123
(lp3282
F122.905588537
asI124
(lp3283
F123.906209041
asI125
(lp3284
F124.904629353
asI126
(lp3285
F125.905623329
asI127
(lp3286
F126.904471853
asasS'U'
p3287
(lp3288
I92
a(dp3289
I217
(lp3290
F217.024661
asI218
(lp3291
F218.023523472
asI219
(lp3292
F219.02499913
asI220
(lp3293
F220.02462
asI221
(lp3294
F221.026284
asI222
(lp3295
F222.026003
asI223
(lp3296
F223.027739187
asI224
(lp3297
F224.027605163
asI225
(lp3298
F225.02939135
asI226
(lp3299
F226.029339101
asI227
(lp3300
F227.031156773
asI228
(lp3301
F228.031371492
asI229
(lp3302
F229.03350628
asI230
(lp3303
F230.033940096
asI231
(lp3304
F231.036293861
asI232
(lp3305
F232.037156297
asI233
(lp3306
F233.039635525
asI234
(lp3307
F234.040952306
asI235
(lp3308
F235.043930131
asI236
(lp3309
F236.04556821
asI237
(lp3310
F237.048730378
asI238
(lp3311
F238.050788423
asI239
(lp3312
F239.054293475
asI240
(lp3313
F240.056593356
asI241
(lp3314
F241.06033
asI242
(lp3315
F242.062932
asI243
(lp3316
F243.06699
asasS'Y'
p3317
(lp3318
I39
a(dp3319
I76
(lp3320
F75.95856
asI77
(lp3321
F76.949781
asI78
(lp3322
F77.94361
asI79
(lp3323
F78.937351299
asI80
(lp3324
F79.934356096
asI81
(lp3325
F80.929455556
asI82
(lp3326
F81.926931401
asI83
(lp3327
F82.92248525
asI84
(lp3328
F83.920672086
asI85
(lp3329
F84.916433039
asI86
(lp3330
F85.91488598
asI87
(lp3331
F86.910876138
asI88
(lp3332
F87.909501563
asI89
(lp3333
F88.905840348
asI90
(lp3334
F89.907143942
asI91
(lp3335
F90.907297442
asI92
(lp3336
F91.908945142
asI93
(lp3337
F92.909577886
asI94
(lp3338
F93.911590582
asI95
(lp3339
F94.912816058
asI96
(lp3340
F95.915896835
asI97
(lp3341
F96.918274106
asI98
(lp3342
F97.922382119
asI99
(lp3343
F98.924147979
asI100
(lp3344
F99.927714692
asI101
(lp3345
F100.930147705
asI102
(lp3346
F101.934327687
asI103
(lp3347
F102.937243004
asI104
(lp3348
F103.94196
asI105
(lp3349
F104.94544
asI106
(lp3350
F105.95056
asI107
(lp3351
F106.95452
asI108
(lp3352
F107.95996
asI109
(lp3353
F108.964358
asasS'Ac'
p3354
(lp3355
I89
a(dp3356
I206
(lp3357
F206.014452
asI207
(lp3358
F207.01196583
asI208
(lp3359
F208.011550406
asI209
(lp3360
F209.009494762
asI210
(lp3361
F210.009436052
asI211
(lp3362
F211.007731899
asI212
(lp3363
F212.007813171
asI213
(lp3364
F213.00660902
asI214
(lp3365
F214.006918488
asI215
(lp3366
F215.006474511
asI216
(lp3367
F216.008743482
asI217
(lp3368
F217.009343872
asI218
(lp3369
F218.01164164
asI219
(lp3370
F219.01242073
asI220
(lp3371
F220.014754854
asI221
(lp3372
F221.015591579
asI222
(lp3373
F222.017844181
asI223
(lp3374
F223.019137747
asI224
(lp3375
F224.021723163
asI225
(lp3376
F225.023229987
asI226
(lp3377
F226.026098383
asI227
(lp3378
F227.027752283
asI228
(lp3379
F228.031021547
asI229
(lp3380
F229.032955884
asI230
(lp3381
F230.036327
asI231
(lp3382
F231.038393
asI232
(lp3383
F232.042034
asI233
(lp3384
F233.044346
asI234
(lp3385
F234.048139
asI235
(lp3386
F235.05084
asI236
(lp3387
F236.054988
asI237
(lp3388
F237.05827
asasS'Ag'
p3389
(lp3390
I47
a(dp3391
I128
(lp3392
F127.94106
asI129
(lp3393
F128.94395
asI130
(lp3394
F129.950703
asI93
(lp3395
F92.95033
asI94
(lp3396
F93.943734
asI95
(lp3397
F94.93602
asI96
(lp3398
F95.930743906
asI97
(lp3399
F96.923965326
asI98
(lp3400
F97.921559973
asI99
(lp3401
F98.917645768
asI100
(lp3402
F99.916115445
asI101
(lp3403
F100.912683953
asI102
(lp3404
F101.911704708
asI103
(lp3405
F102.908963138
asI104
(lp3406
F103.908623864
asI105
(lp3407
F104.906525615
asI106
(lp3408
F105.906663637
asI107
(lp3409
F106.905091611
asI108
(lp3410
F107.905950346
asI109
(lp3411
F108.904755282
asI110
(lp3412
F109.906110226
asI111
(lp3413
F110.905295923
asI112
(lp3414
F111.90704855
asI113
(lp3415
F112.906572893
asI114
(lp3416
F113.908823031
asI115
(lp3417
F114.908767355
asI116
(lp3418
F115.911386812
asI117
(lp3419
F116.911773934
asI118
(lp3420
F117.914595487
asI119
(lp3421
F118.915570287
asI120
(lp3422
F119.918784768
asI121
(lp3423
F120.920125282
asI122
(lp3424
F121.923664449
asI123
(lp3425
F122.925337063
asI124
(lp3426
F123.928931229
asI125
(lp3427
F124.931046
asI126
(lp3428
F125.93475
asI127
(lp3429
F126.93711
asasS'Ir'
p3430
(lp3431
I77
a(dp3432
I164
(lp3433
F163.991909
asI165
(lp3434
F164.987501
asI166
(lp3435
F165.985664
asI167
(lp3436
F166.981666315
asI168
(lp3437
F167.979906642
asI169
(lp3438
F168.976298488
asI170
(lp3439
F169.974922
asI171
(lp3440
F170.971640252
asI172
(lp3441
F171.970607036
asI173
(lp3442
F172.967505636
asI174
(lp3443
F173.966861045
asI175
(lp3444
F174.964149589
asI176
(lp3445
F175.963650389
asI177
(lp3446
F176.9613015
asI178
(lp3447
F177.961082
asI179
(lp3448
F178.959120178
asI180
(lp3449
F179.959229446
asI181
(lp3450
F180.957625456
asI182
(lp3451
F181.958076296
asI183
(lp3452
F182.956839968
asI184
(lp3453
F183.957476
asI185
(lp3454
F184.956698
asI186
(lp3455
F185.957944153
asI187
(lp3456
F186.957542
asI188
(lp3457
F187.958828095
asI189
(lp3458
F188.958715028
asI190
(lp3459
F189.960541215
asI191
(lp3460
F190.960589293
asI192
(lp3461
F191.962600247
asI193
(lp3462
F192.962921587
asI194
(lp3463
F193.965073536
asI195
(lp3464
F194.96597473
asI196
(lp3465
F195.968397112
asI197
(lp3466
F196.969655415
asI198
(lp3467
F197.97228
asI199
(lp3468
F198.973805301
asI200
(lp3469
F199.9768
asI201
(lp3470
F200.97864
asI202
(lp3471
F201.98199
asI203
(lp3472
F202.98423
asI204
(lp3473
F203.9896
asasS'Am'
p3474
(lp3475
I95
a(dp3476
I230
(lp3477
F230.04609
asI231
(lp3478
F231.04556
asI232
(lp3479
F232.04645
asI233
(lp3480
F233.046445
asI234
(lp3481
F234.047731
asI235
(lp3482
F235.047908245
asI236
(lp3483
F236.049428
asI237
(lp3484
F237.049996
asI238
(lp3485
F238.051984542
asI239
(lp3486
F239.053024699
asI240
(lp3487
F240.055300384
asI241
(lp3488
F241.056829349
asI242
(lp3489
F242.059549364
asI243
(lp3490
F243.061381302
asI244
(lp3491
F244.064285052
asI245
(lp3492
F245.066454834
asI246
(lp3493
F246.069775
asI247
(lp3494
F247.072093
asI248
(lp3495
F248.075753
asI249
(lp3496
F249.07848
asasS'Al'
p3497
(lp3498
I13
a(dp3499
I21
(lp3500
F21.028975
asI22
(lp3501
F22.01954
asI23
(lp3502
F23.007244351
asI24
(lp3503
F23.999948883
asI25
(lp3504
F24.990428102
asI26
(lp3505
F25.986891904
asI27
(lp3506
F26.981538531
asI28
(lp3507
F27.98191021
asI29
(lp3508
F28.98045649
asI30
(lp3509
F29.98296022
asI31
(lp3510
F30.983945171
asI32
(lp3511
F31.988085239
asI33
(lp3512
F32.990908977
asI34
(lp3513
F33.996705398
asI35
(lp3514
F34.999764
asI36
(lp3515
F36.006388
asI37
(lp3516
F37.010531
asI38
(lp3517
F38.017402
asI39
(lp3518
F39.02254
asI40
(lp3519
F40.03003
asI41
(lp3520
F41.03638
asI42
(lp3521
F42.04384
asI43
(lp3522
F43.05147
asasS'As'
p3523
(lp3524
I33
a(dp3525
I60
(lp3526
F59.99388
asI61
(lp3527
F60.98112
asI62
(lp3528
F61.97361
asI63
(lp3529
F62.9639
asI64
(lp3530
F63.957432
asI65
(lp3531
F64.949611
asI66
(lp3532
F65.944148779
asI67
(lp3533
F66.939251112
asI68
(lp3534
F67.93677413
asI69
(lp3535
F68.932246302
asI70
(lp3536
F69.930926195
asI71
(lp3537
F70.927113801
asI72
(lp3538
F71.926752294
asI73
(lp3539
F72.923829086
asI74
(lp3540
F73.923928598
asI75
(lp3541
F74.921594567
asI76
(lp3542
F75.922392015
asI77
(lp3543
F76.920647563
asI78
(lp3544
F77.921827773
asI79
(lp3545
F78.920948423
asI80
(lp3546
F79.922474584
asI81
(lp3547
F80.92213228
asI82
(lp3548
F81.924741233
asI83
(lp3549
F82.925206901
asI84
(lp3550
F83.929303292
asI85
(lp3551
F84.93216366
asI86
(lp3552
F85.936701533
asI87
(lp3553
F86.940291718
asI88
(lp3554
F87.94555
asI89
(lp3555
F88.94976
asI90
(lp3556
F89.95563
asI91
(lp3557
F90.96039
asI92
(lp3558
F91.96674
asasS'Ar'
p3559
(lp3560
I18
a(dp3561
I30
(lp3562
F30.02307
asI31
(lp3563
F31.012124
asI32
(lp3564
F31.997637826
asI33
(lp3565
F32.989925546
asI34
(lp3566
F33.98027009
asI35
(lp3567
F34.975257586
asI36
(lp3568
F35.967545105
asI37
(lp3569
F36.966776331
asI38
(lp3570
F37.962732106
asI39
(lp3571
F38.964313038
asI40
(lp3572
F39.9623831237
asI41
(lp3573
F40.96450057
asI42
(lp3574
F41.963045736
asI43
(lp3575
F42.965636055
asI44
(lp3576
F43.964923815
asI45
(lp3577
F44.968039733
asI46
(lp3578
F45.968082712
asI47
(lp3579
F46.972934865
asI48
(lp3580
F47.97591
asI49
(lp3581
F48.9819
asI50
(lp3582
F49.98613
asI51
(lp3583
F50.9937
asI52
(lp3584
F51.99896
asI53
(lp3585
F53.00729
asasS'Au'
p3586
(lp3587
I79
a(dp3588
I169
(lp3589
F168.99808
asI170
(lp3590
F169.995972
asI171
(lp3591
F170.991875791
asI172
(lp3592
F171.989942284
asI173
(lp3593
F172.986240924
asI174
(lp3594
F173.984717
asI175
(lp3595
F174.981303712
asI176
(lp3596
F175.980250432
asI177
(lp3597
F176.976870439
asI178
(lp3598
F177.97603192
asI179
(lp3599
F178.973173654
asI180
(lp3600
F179.972523397
asI181
(lp3601
F180.970079047
asI182
(lp3602
F181.969617874
asI183
(lp3603
F182.967590635
asI184
(lp3604
F183.967451524
asI185
(lp3605
F184.965789569
asI186
(lp3606
F185.965952703
asI187
(lp3607
F186.964543155
asI188
(lp3608
F187.965349392
asI189
(lp3609
F188.963948286
asI190
(lp3610
F189.96469839
asI191
(lp3611
F190.963702248
asI192
(lp3612
F191.964813694
asI193
(lp3613
F192.964137257
asI194
(lp3614
F193.965417754
asI195
(lp3615
F194.965035225
asI196
(lp3616
F195.966569908
asI197
(lp3617
F196.966568786
asI198
(lp3618
F197.96824242
asI199
(lp3619
F198.968765282
asI200
(lp3620
F199.970756456
asI201
(lp3621
F200.971657484
asI202
(lp3622
F201.973856
asI203
(lp3623
F202.975154446
asI204
(lp3624
F203.977831
asI205
(lp3625
F204.97985
asI206
(lp3626
F205.98474
asI207
(lp3627
F206.9884
asI208
(lp3628
F207.99345
asI209
(lp3629
F208.99735
asI210
(lp3630
F210.0025
asasS'At'
p3631
(lp3632
I85
a(dp3633
I191
(lp3634
F191.004147909
asI192
(lp3635
F192.003151707
asI193
(lp3636
F192.999927418
asI194
(lp3637
F193.999236139
asI195
(lp3638
F194.996268546
asI196
(lp3639
F195.995799619
asI197
(lp3640
F196.993189187
asI198
(lp3641
F197.992784
asI199
(lp3642
F198.990527654
asI200
(lp3643
F199.990351015
asI201
(lp3644
F200.988417147
asI202
(lp3645
F201.988630302
asI203
(lp3646
F202.98694299
asI204
(lp3647
F203.987251198
asI205
(lp3648
F204.986075861
asI206
(lp3649
F205.986656933
asI207
(lp3650
F206.985800332
asI208
(lp3651
F207.986613302
asI209
(lp3652
F208.986170215
asI210
(lp3653
F209.987147898
asI211
(lp3654
F210.987496614
asI212
(lp3655
F211.990737688
asI213
(lp3656
F212.992936978
asI214
(lp3657
F213.996372066
asI215
(lp3658
F214.998652849
asI216
(lp3659
F216.002423555
asI217
(lp3660
F217.004719222
asI218
(lp3661
F218.008694723
asI219
(lp3662
F219.011161848
asI220
(lp3663
F220.015433
asI221
(lp3664
F221.018017
asI222
(lp3665
F222.022494
asI223
(lp3666
F223.025151
asI224
(lp3667
F224.029749
asI225
(lp3668
F225.03263
asI226
(lp3669
F226.03716
asI227
(lp3670
F227.04024
asI228
(lp3671
F228.04475
asI229
(lp3672
F229.04812
asasS'In'
p3673
(lp3674
I49
a(dp3675
I128
(lp3676
F127.920401044
asI129
(lp3677
F128.921805301
asI130
(lp3678
F129.924976585
asI131
(lp3679
F130.926971529
asI132
(lp3680
F131.933001273
asI133
(lp3681
F132.93831
asI134
(lp3682
F133.94454
asI135
(lp3683
F134.95005
asI97
(lp3684
F96.94934
asI98
(lp3685
F97.94214
asI99
(lp3686
F98.93411
asI100
(lp3687
F99.93095718
asI101
(lp3688
F100.92634
asI102
(lp3689
F101.924107138
asI103
(lp3690
F102.919881915
asI104
(lp3691
F103.918214541
asI105
(lp3692
F104.914502325
asI106
(lp3693
F105.913463735
asI107
(lp3694
F106.910290084
asI108
(lp3695
F107.909693524
asI109
(lp3696
F108.907151381
asI110
(lp3697
F109.90716981
asI111
(lp3698
F110.905108458
asI112
(lp3699
F111.905537694
asI113
(lp3700
F112.904061839
asI114
(lp3701
F113.904917909
asI115
(lp3702
F114.903878776
asI116
(lp3703
F115.905259995
asI117
(lp3704
F116.904515678
asI118
(lp3705
F117.906356616
asI119
(lp3706
F118.905850708
asI120
(lp3707
F119.907966567
asI121
(lp3708
F120.907851062
asI122
(lp3709
F121.910280738
asI123
(lp3710
F122.910433718
asI124
(lp3711
F123.913182245
asI125
(lp3712
F124.913604553
asI126
(lp3713
F125.916507322
asI127
(lp3714
F126.917446276
asas.